Time	Cycle	PC	Insn	Decoded instruction	Register and memory contents
             20	         6	00100080	2d40006f	jal	x0,100354	  x0=0x00000000
             22	         7	00100354	00000093	addi	x1,x0,0	  x0:0x00000000  x1=0x00000000
             24	         8	00100358	8106	c.mv	x2,x1	  x0:0x00000000  x1:0x00000000  x2=0x00000000
             26	         9	0010035a	8186	c.mv	x3,x1	  x0:0x00000000  x1:0x00000000  x3=0x00000000
             28	        10	0010035c	8206	c.mv	x4,x1	  x0:0x00000000  x1:0x00000000  x4=0x00000000
             30	        11	0010035e	8286	c.mv	x5,x1	  x0:0x00000000  x1:0x00000000  x5=0x00000000
             32	        12	00100360	8306	c.mv	x6,x1	  x0:0x00000000  x1:0x00000000  x6=0x00000000
             34	        13	00100362	8386	c.mv	x7,x1	  x0:0x00000000  x1:0x00000000  x7=0x00000000
             36	        14	00100364	8406	c.mv	x8,x1	  x0:0x00000000  x1:0x00000000  x8=0x00000000
             38	        15	00100366	8486	c.mv	x9,x1	  x0:0x00000000  x1:0x00000000  x9=0x00000000
             40	        16	00100368	8506	c.mv	x10,x1	  x0:0x00000000  x1:0x00000000 x10=0x00000000
             42	        17	0010036a	8586	c.mv	x11,x1	  x0:0x00000000  x1:0x00000000 x11=0x00000000
             44	        18	0010036c	8606	c.mv	x12,x1	  x0:0x00000000  x1:0x00000000 x12=0x00000000
             46	        19	0010036e	8686	c.mv	x13,x1	  x0:0x00000000  x1:0x00000000 x13=0x00000000
             48	        20	00100370	8706	c.mv	x14,x1	  x0:0x00000000  x1:0x00000000 x14=0x00000000
             50	        21	00100372	8786	c.mv	x15,x1	  x0:0x00000000  x1:0x00000000 x15=0x00000000
             52	        22	00100374	8806	c.mv	x16,x1	  x0:0x00000000  x1:0x00000000 x16=0x00000000
             54	        23	00100376	8886	c.mv	x17,x1	  x0:0x00000000  x1:0x00000000 x17=0x00000000
             56	        24	00100378	8906	c.mv	x18,x1	  x0:0x00000000  x1:0x00000000 x18=0x00000000
             58	        25	0010037a	8986	c.mv	x19,x1	  x0:0x00000000  x1:0x00000000 x19=0x00000000
             60	        26	0010037c	8a06	c.mv	x20,x1	  x0:0x00000000  x1:0x00000000 x20=0x00000000
             62	        27	0010037e	8a86	c.mv	x21,x1	  x0:0x00000000  x1:0x00000000 x21=0x00000000
             64	        28	00100380	8b06	c.mv	x22,x1	  x0:0x00000000  x1:0x00000000 x22=0x00000000
             66	        29	00100382	8b86	c.mv	x23,x1	  x0:0x00000000  x1:0x00000000 x23=0x00000000
             68	        30	00100384	8c06	c.mv	x24,x1	  x0:0x00000000  x1:0x00000000 x24=0x00000000
             70	        31	00100386	8c86	c.mv	x25,x1	  x0:0x00000000  x1:0x00000000 x25=0x00000000
             72	        32	00100388	8d06	c.mv	x26,x1	  x0:0x00000000  x1:0x00000000 x26=0x00000000
             74	        33	0010038a	8d86	c.mv	x27,x1	  x0:0x00000000  x1:0x00000000 x27=0x00000000
             76	        34	0010038c	8e06	c.mv	x28,x1	  x0:0x00000000  x1:0x00000000 x28=0x00000000
             78	        35	0010038e	8e86	c.mv	x29,x1	  x0:0x00000000  x1:0x00000000 x29=0x00000000
             80	        36	00100390	8f06	c.mv	x30,x1	  x0:0x00000000  x1:0x00000000 x30=0x00000000
             82	        37	00100392	8f86	c.mv	x31,x1	  x0:0x00000000  x1:0x00000000 x31=0x00000000
             84	        38	00100394	00100117	auipc	x2,0x100	  x2=0x00200394
             86	        39	00100398	c6c10113	addi	x2,x2,-916	  x2:0x00200394  x2=0x00200000
             88	        40	0010039c	00000d17	auipc	x26,0x0	 x26=0x0010039c
             90	        41	001003a0	794d0d13	addi	x26,x26,1940	 x26:0x0010039c x26=0x00100b30
             92	        42	001003a4	00000d97	auipc	x27,0x0	 x27=0x001003a4
             94	        43	001003a8	79cd8d93	addi	x27,x27,1948	 x27:0x001003a4 x27=0x00100b40
             96	        44	001003ac	01bd5763	bge	x26,x27,1003ba	 x26:0x00100b30 x27:0x00100b40  x0=0x00000000
            100	        46	001003b0	000d2023	sw	x0,0(x26)	 x26:0x00100b30  x0:0x00000000 PA:0x00100b30 store:0x00000000 load:0x00000000
            102	        47	001003b4	0d11	c.addi	x26,4	 x26:0x00100b30 x26=0x00100b34
            106	        49	001003b6	ffaddde3	bge	x27,x26,1003b0	 x27:0x00100b40 x26:0x00100b34  x0=0x00000000
            112	        52	001003b0	000d2023	sw	x0,0(x26)	 x26:0x00100b34  x0:0x00000000 PA:0x00100b34 store:0x00000000 load:0x00000000
            114	        53	001003b4	0d11	c.addi	x26,4	 x26:0x00100b34 x26=0x00100b38
            118	        55	001003b6	ffaddde3	bge	x27,x26,1003b0	 x27:0x00100b40 x26:0x00100b38  x0=0x00000000
            124	        58	001003b0	000d2023	sw	x0,0(x26)	 x26:0x00100b38  x0:0x00000000 PA:0x00100b38 store:0x00000000 load:0x00000000
            126	        59	001003b4	0d11	c.addi	x26,4	 x26:0x00100b38 x26=0x00100b3c
            130	        61	001003b6	ffaddde3	bge	x27,x26,1003b0	 x27:0x00100b40 x26:0x00100b3c  x0=0x00000000
            136	        64	001003b0	000d2023	sw	x0,0(x26)	 x26:0x00100b3c  x0:0x00000000 PA:0x00100b3c store:0x00000000 load:0x00000000
            138	        65	001003b4	0d11	c.addi	x26,4	 x26:0x00100b3c x26=0x00100b40
            142	        67	001003b6	ffaddde3	bge	x27,x26,1003b0	 x27:0x00100b40 x26:0x00100b40  x0=0x00000000
            148	        70	001003b0	000d2023	sw	x0,0(x26)	 x26:0x00100b40  x0:0x00000000 PA:0x00100b40 store:0x00000000 load:0x00000000
            150	        71	001003b4	0d11	c.addi	x26,4	 x26:0x00100b40 x26=0x00100b44
            152	        72	001003b6	ffaddde3	bge	x27,x26,1003b0	 x27:0x00100b40 x26:0x00100b44  x0=0x00000000
            154	        73	001003ba	00000513	addi	x10,x0,0	  x0:0x00000000 x10=0x00000000
            158	        75	001003be	00000593	addi	x11,x0,0	  x0:0x00000000 x11=0x00000000
            162	        77	001003c2	638000ef	jal	x1,1009fa	  x1=0x001003c6
            164	        78	001009fa	715d	c.addi16sp	x2,-80	  x2:0x00200000  x2=0x001fffb0
            166	        79	001009fc	00000797	auipc	x15,0x0	 x15=0x001009fc
            168	        80	00100a00	0a078793	addi	x15,x15,160	 x15:0x001009fc x15=0x00100a9c
            172	        82	00100a04	0047a383	lw	x7,4(x15)	 x15:0x00100a9c  x7=0x33330000 PA:0x00100aa0 store:0x00000000
            176	        84	00100a08	0087a283	lw	x5,8(x15)	 x15:0x00100a9c  x5=0x33330000 PA:0x00100aa4 store:0x00000000
            180	        86	00100a0c	00c7af83	lw	x31,12(x15)	 x15:0x00100a9c x31=0x33330000 PA:0x00100aa8 store:0x00000000
            184	        88	00100a10	0107af03	lw	x30,16(x15)	 x15:0x00100a9c x30=0x33330000 PA:0x00100aac store:0x00000000
            188	        90	00100a14	0147ae83	lw	x29,20(x15)	 x15:0x00100a9c x29=0x33330000 PA:0x00100ab0 store:0x00000000
            192	        92	00100a18	0187ae03	lw	x28,24(x15)	 x15:0x00100a9c x28=0x33330000 PA:0x00100ab4 store:0x00000000
            196	        94	00100a1c	01c7a303	lw	x6,28(x15)	 x15:0x00100a9c  x6=0x33330000 PA:0x00100ab8 store:0x33330000
            200	        96	00100a20	0207a883	lw	x17,32(x15)	 x15:0x00100a9c x17=0x44440000 PA:0x00100abc store:0x00000000
            204	        98	00100a24	0247a803	lw	x16,36(x15)	 x15:0x00100a9c x16=0x44440000 PA:0x00100ac0 store:0x00000000
            208	       100	00100a28	5788	c.lw	x10,40(x15)	 x15:0x00100a9c x10=0x44440000 PA:0x00100ac4 store:0x00000000
            212	       102	00100a2a	57cc	c.lw	x11,44(x15)	 x15:0x00100a9c x11=0x44440000 PA:0x00100ac8 store:0x00000000
            216	       104	00100a2c	c4a2	c.swsp	x8,72(x2)	  x2:0x001fffb0  x8:0x00000000 PA:0x001ffff8 store:0x00000000 load:0x00000000
            220	       106	00100a2e	4380	c.lw	x8,0(x15)	 x15:0x00100a9c  x8=0x33330000 PA:0x00100a9c store:0x00000000
            224	       108	00100a30	5bd4	c.lw	x13,52(x15)	 x15:0x00100a9c x13=0x44440000 PA:0x00100ad0 store:0x00000000
            228	       110	00100a32	5f98	c.lw	x14,56(x15)	 x15:0x00100a9c x14=0x44440000 PA:0x00100ad4 store:0x00000000
            232	       112	00100a34	5b90	c.lw	x12,48(x15)	 x15:0x00100a9c x12=0x44440000 PA:0x00100acc store:0x44440000
            236	       114	00100a36	5fdc	c.lw	x15,60(x15)	 x15:0x00100a9c x15=0x44440000 PA:0x00100ad8 store:0x33330000
            240	       116	00100a38	c2a6	c.swsp	x9,68(x2)	  x2:0x001fffb0  x9:0x00000000 PA:0x001ffff4 store:0x00000000 load:0x00000000
            244	       118	00100a3a	c0ca	c.swsp	x18,64(x2)	  x2:0x001fffb0 x18:0x00000000 PA:0x001ffff0 store:0x00000000 load:0x00000000
            248	       120	00100a3c	c022	c.swsp	x8,0(x2)	  x2:0x001fffb0  x8:0x33330000 PA:0x001fffb0 store:0x33330000 load:0x00000000
            252	       122	00100a3e	c686	c.swsp	x1,76(x2)	  x2:0x001fffb0  x1:0x001003c6 PA:0x001ffffc store:0x001003c6 load:0x00000000
            256	       124	00100a40	c21e	c.swsp	x7,4(x2)	  x2:0x001fffb0  x7:0x33330000 PA:0x001fffb4 store:0x33330000 load:0x00000000
            260	       126	00100a42	c416	c.swsp	x5,8(x2)	  x2:0x001fffb0  x5:0x33330000 PA:0x001fffb8 store:0x33330000 load:0x00000000
            264	       128	00100a44	c67e	c.swsp	x31,12(x2)	  x2:0x001fffb0 x31:0x33330000 PA:0x001fffbc store:0x33330000 load:0x00000000
            268	       130	00100a46	c87a	c.swsp	x30,16(x2)	  x2:0x001fffb0 x30:0x33330000 PA:0x001fffc0 store:0x33330000 load:0x00000000
            272	       132	00100a48	ca76	c.swsp	x29,20(x2)	  x2:0x001fffb0 x29:0x33330000 PA:0x001fffc4 store:0x33330000 load:0x00000000
            276	       134	00100a4a	cc72	c.swsp	x28,24(x2)	  x2:0x001fffb0 x28:0x33330000 PA:0x001fffc8 store:0x33330000 load:0x00000000
            280	       136	00100a4c	ce1a	c.swsp	x6,28(x2)	  x2:0x001fffb0  x6:0x33330000 PA:0x001fffcc store:0x33330000 load:0x00000000
            284	       138	00100a4e	d046	c.swsp	x17,32(x2)	  x2:0x001fffb0 x17:0x44440000 PA:0x001fffd0 store:0x44440000 load:0x00000000
            288	       140	00100a50	d242	c.swsp	x16,36(x2)	  x2:0x001fffb0 x16:0x44440000 PA:0x001fffd4 store:0x44440000 load:0x00000000
            292	       142	00100a52	d42a	c.swsp	x10,40(x2)	  x2:0x001fffb0 x10:0x44440000 PA:0x001fffd8 store:0x44440000 load:0x00000000
            296	       144	00100a54	d62e	c.swsp	x11,44(x2)	  x2:0x001fffb0 x11:0x44440000 PA:0x001fffdc store:0x44440000 load:0x00000000
            300	       146	00100a56	d832	c.swsp	x12,48(x2)	  x2:0x001fffb0 x12:0x44440000 PA:0x001fffe0 store:0x44440000 load:0x00000000
            302	       147	00100a58	4401	c.li	x8,0	  x8=0x00000000
            306	       149	00100a5a	da36	c.swsp	x13,52(x2)	  x2:0x001fffb0 x13:0x44440000 PA:0x001fffe4 store:0x44440000 load:0x00000000
            310	       151	00100a5c	dc3a	c.swsp	x14,56(x2)	  x2:0x001fffb0 x14:0x44440000 PA:0x001fffe8 store:0x44440000 load:0x00000000
            314	       153	00100a5e	de3e	c.swsp	x15,60(x2)	  x2:0x001fffb0 x15:0x44440000 PA:0x001fffec store:0x44440000 load:0x00000000
            316	       154	00100a60	00000917	auipc	x18,0x0	 x18=0x00100a60
            318	       155	00100a64	08890913	addi	x18,x18,136	 x18:0x00100a60 x18=0x00100ae8
            320	       156	00100a68	44a1	c.li	x9,8	  x9=0x00000008
            322	       157	00100a6a	0098	c.addi4spn	x14,x2,64	 x14=0x001ffff0
            324	       158	00100a6c	00241793	slli	x15,x8,0x2	  x8:0x00000000 x15=0x00000000
            326	       159	00100a70	97ba	c.add	x15,x14	 x15:0x00000000 x14:0x001ffff0 x15=0x001ffff0
            330	       161	00100a72	fe07a583	lw	x11,-32(x15)	 x15:0x001ffff0 x11=0x44440000 PA:0x001fffd0 store:0x00000000
            334	       163	00100a76	fc07a503	lw	x10,-64(x15)	 x15:0x001ffff0 x10=0x33330000 PA:0x001fffb0 store:0x00000000
            336	       164	00100a7a	4641	c.li	x12,16	 x12=0x00000010
            338	       165	00100a7c	0405	c.addi	x8,1	  x8:0x00000000  x8=0x00000001
            342	       167	00100a7e	3aa9	c.jal	1003d8	  x1=0x00100a80
            344	       168	001003d8	ffe60693	addi	x13,x12,-2	 x12:0x00000010 x13=0x0000000e
            346	       169	001003dc	4879	c.li	x16,30	 x16=0x0000001e
            348	       170	001003de	87aa	c.mv	x15,x10	  x0:0x00000000 x10:0x33330000 x15=0x33330000
            350	       171	001003e0	872e	c.mv	x14,x11	  x0:0x00000000 x11:0x44440000 x14=0x44440000
            352	       172	001003e2	02d86263	bltu	x16,x13,100406	 x16:0x0000001e x13:0x0000000e  x0=0x00000000
            354	       173	001003e6	cd09	c.beqz	x10,100400	 x10:0x33330000
            356	       174	001003e8	cd81	c.beqz	x11,100400	 x11:0x44440000
            358	       175	001003ea	800006b7	lui	x13,0x80000	 x13=0x80000000
            360	       176	001003ee	00d50c63	beq	x10,x13,100406	 x10:0x33330000 x13:0x80000000  x0=0x00000000
            362	       177	001003f2	00d58a63	beq	x11,x13,100406	 x11:0x44440000 x13:0x80000000  x0=0x00000000
            364	       178	001003f6	00b547b3	xor	x15,x10,x11	 x10:0x33330000 x11:0x44440000 x15=0x77770000
            366	       179	001003fa	0007c963	blt	x15,x0,10040c	 x15:0x77770000  x0:0x00000000  x0=0x00000000
            370	       181	001003fe	a801	c.j	10040e	
            372	       182	0010040e	832a	c.mv	x6,x10	  x0:0x00000000 x10:0x33330000  x6=0x33330000
            374	       183	00100410	12054e63	blt	x10,x0,10054c	 x10:0x33330000  x0:0x00000000  x0=0x00000000
            376	       184	00100414	00b55563	bge	x10,x11,10041e	 x10:0x33330000 x11:0x44440000  x0=0x00000000
            378	       185	00100418	87aa	c.mv	x15,x10	  x0:0x00000000 x10:0x33330000 x15=0x33330000
            380	       186	0010041a	852e	c.mv	x10,x11	  x0:0x00000000 x11:0x44440000 x10=0x44440000
            382	       187	0010041c	85be	c.mv	x11,x15	  x0:0x00000000 x15:0x33330000 x11=0x33330000
            384	       188	0010041e	4789	c.li	x15,2	 x15=0x00000002
            386	       189	00100420	14f60563	beq	x12,x15,10056a	 x12:0x00000010 x15:0x00000002  x0=0x00000000
            388	       190	00100424	00151713	slli	x14,x10,0x1	 x10:0x44440000 x14=0x88880000
            390	       191	00100428	00251793	slli	x15,x10,0x2	 x10:0x44440000 x15=0x11100000
            392	       192	0010042c	12075563	bge	x14,x0,100556	 x14:0x88880000  x0:0x00000000  x0=0x00000000
            394	       193	00100430	4801	c.li	x16,0	 x16=0x00000000
            398	       195	00100432	0007d663	bge	x15,x0,10043e	 x15:0x11100000  x0:0x00000000  x0=0x00000000
            404	       198	0010043e	00179893	slli	x17,x15,0x1	 x15:0x11100000 x17=0x22200000
            406	       199	00100442	40000737	lui	x14,0x40000	 x14=0x40000000
            408	       200	00100446	00e8e8b3	or	x17,x17,x14	 x17:0x22200000 x14:0x40000000 x17=0x62200000
            410	       201	0010044a	01d7d713	srli	x14,x15,0x1d	 x15:0x11100000 x14=0x00000000
            412	       202	0010044e	800007b7	lui	x15,0x80000	 x15=0x80000000
            414	       203	00100452	fff7c793	xori	x15,x15,-1	 x15:0x80000000 x15=0x7fffffff
            416	       204	00100456	00159693	slli	x13,x11,0x1	 x11:0x33330000 x13=0x66660000
            418	       205	0010045a	00f8f8b3	and	x17,x17,x15	 x17:0x62200000 x15:0x7fffffff x17=0x62200000
            420	       206	0010045e	4f01	c.li	x30,0	 x30=0x00000000
            422	       207	00100460	00259793	slli	x15,x11,0x2	 x11:0x33330000 x15=0xcccc0000
            426	       209	00100464	1006df63	bge	x13,x0,100582	 x13:0x66660000  x0:0x00000000  x0=0x00000000
            432	       212	00100582	00180693	addi	x13,x16,1	 x16:0x00000000 x13=0x00000001
            436	       214	00100586	0007c663	blt	x15,x0,100592	 x15:0xcccc0000  x0:0x00000000  x0=0x00000000
            440	       216	00100592	0786	c.slli	x15,0x1	 x15:0xcccc0000 x15=0x99980000
            442	       217	00100594	8385	c.srli	x15,0x1	 x15:0x99980000 x15=0x4ccc0000
            446	       219	00100596	b5c5	c.j	100476	
            448	       220	00100476	068a	c.slli	x13,0x2	 x13:0x00000001 x13=0x00000004
            450	       221	00100478	01d7d513	srli	x10,x15,0x1d	 x15:0x4ccc0000 x10=0x00000002
            452	       222	0010047c	96ba	c.add	x13,x14	 x13:0x00000004 x14:0x00000000 x13=0x00000004
            454	       223	0010047e	8e89	c.sub	x13,x10	 x13:0x00000004 x10:0x00000002 x13=0x00000002
            456	       224	00100480	03f00513	addi	x10,x0,63	  x0:0x00000000 x10=0x0000003f
            458	       225	00100484	04d54463	blt	x10,x13,1004cc	 x10:0x0000003f x13:0x00000002  x0=0x00000000
            460	       226	00100488	400005b7	lui	x11,0x40000	 x11=0x40000000
            462	       227	0010048c	0786	c.slli	x15,0x1	 x15:0x4ccc0000 x15=0x99980000
            464	       228	0010048e	80000537	lui	x10,0x80000	 x10=0x80000000
            466	       229	00100492	8fcd	c.or	x15,x11	 x15:0x99980000 x11:0x40000000 x15=0xd9980000
            468	       230	00100494	fff54513	xori	x10,x10,-1	 x10:0x80000000 x10=0x7fffffff
            470	       231	00100498	fe068593	addi	x11,x13,-32	 x13:0x00000002 x11=0xffffffe2
            472	       232	0010049c	8fe9	c.and	x15,x10	 x15:0xd9980000 x10:0x7fffffff x15=0x59980000
            476	       234	0010049e	1205ce63	blt	x11,x0,1005da	 x11:0xffffffe2  x0:0x00000000  x0=0x00000000
            480	       236	001005da	457d	c.li	x10,31	 x10=0x0000001f
            482	       237	001005dc	00179593	slli	x11,x15,0x1	 x15:0x59980000 x11=0xb3300000
            484	       238	001005e0	8d15	c.sub	x10,x13	 x10:0x0000001f x13:0x00000002 x10=0x0000001d
            486	       239	001005e2	00a595b3	sll	x11,x11,x10	 x11:0xb3300000 x10:0x0000001d x11=0x00000000
            488	       240	001005e6	00d7d7b3	srl	x15,x15,x13	 x15:0x59980000 x13:0x00000002 x15=0x16660000
            492	       242	001005ea	bd7d	c.j	1004a8	
            494	       243	001004a8	97c6	c.add	x15,x17	 x15:0x16660000 x17:0x62200000 x15=0x78860000
            496	       244	001004aa	88be	c.mv	x17,x15	  x0:0x00000000 x15:0x78860000 x17=0x78860000
            498	       245	001004ac	8f2e	c.mv	x30,x11	  x0:0x00000000 x11:0x00000000 x30=0x00000000
            502	       247	001004ae	0007df63	bge	x15,x0,1004cc	 x15:0x78860000  x0:0x00000000  x0=0x00000000
            506	       249	001004cc	fff60e13	addi	x28,x12,-1	 x12:0x00000010 x28=0x0000000f
            508	       250	001004d0	0c084463	blt	x16,x0,100598	 x16:0x00000000  x0:0x00000000  x0=0x00000000
            510	       251	001004d4	00180e93	addi	x29,x16,1	 x16:0x00000000 x29=0x00000001
            512	       252	001004d8	0fced163	bge	x29,x28,1005ba	 x29:0x00000001 x28:0x0000000f  x0=0x00000000
            514	       253	001004dc	800006b7	lui	x13,0x80000	 x13=0x80000000
            516	       254	001004e0	fff6c513	xori	x10,x13,-1	 x13:0x80000000 x10=0x7fffffff
            518	       255	001004e4	41d557b3	sra	x15,x10,x29	 x10:0x7fffffff x29:0x00000001 x15=0x3fffffff
            520	       256	001004e8	8d1d	c.sub	x10,x15	 x10:0x7fffffff x15:0x3fffffff x10=0x40000000
            522	       257	001004ea	14cedd63	bge	x29,x12,100644	 x29:0x00000001 x12:0x00000010  x0=0x00000000
            524	       258	001004ee	088a	c.slli	x17,0x2	 x17:0x78860000 x17=0xe2180000
            526	       259	001004f0	fe380593	addi	x11,x16,-29	 x16:0x00000000 x11=0xffffffe3
            528	       260	001004f4	0028d893	srli	x17,x17,0x2	 x17:0xe2180000 x17=0x38860000
            530	       261	001004f8	00380793	addi	x15,x16,3	 x16:0x00000000 x15=0x00000003
            534	       263	001004fc	1c05c063	blt	x11,x0,1006bc	 x11:0xffffffe3  x0:0x00000000  x0=0x00000000
            538	       265	001006bc	45fd	c.li	x11,31	 x11=0x0000001f
            540	       266	001006be	8d9d	c.sub	x11,x15	 x11:0x0000001f x15:0x00000003 x11=0x0000001c
            542	       267	001006c0	00189693	slli	x13,x17,0x1	 x17:0x38860000 x13=0x710c0000
            544	       268	001006c4	00b696b3	sll	x13,x13,x11	 x13:0x710c0000 x11:0x0000001c x13=0x00000000
            546	       269	001006c8	00ff55b3	srl	x11,x30,x15	 x30:0x00000000 x15:0x00000003 x11=0x00000000
            548	       270	001006cc	8dd5	c.or	x11,x13	 x11:0x00000000 x13:0x00000000 x11=0x00000000
            550	       271	001006ce	00f8d6b3	srl	x13,x17,x15	 x17:0x38860000 x15:0x00000003 x13=0x0710c000
            554	       273	001006d2	bd15	c.j	100506	
            556	       274	00100506	47f1	c.li	x15,28	 x15=0x0000001c
            558	       275	00100508	41d787b3	sub	x15,x15,x29	 x15:0x0000001c x29:0x00000001 x15=0x0000001b
            560	       276	0010050c	ffd60813	addi	x16,x12,-3	 x12:0x00000010 x16=0x0000000d
            562	       277	00100510	0d0ede63	bge	x29,x16,1005ec	 x29:0x00000001 x16:0x0000000d  x0=0x00000000
            564	       278	00100514	80000837	lui	x16,0x80000	 x16=0x80000000
            566	       279	00100518	41c85e33	sra	x28,x16,x28	 x16:0x80000000 x28:0x0000000f x28=0xffff0000
            568	       280	0010051c	02000893	addi	x17,x0,32	  x0:0x00000000 x17=0x00000020
            570	       281	00100520	00de7e33	and	x28,x28,x13	 x28:0xffff0000 x13:0x0710c000 x28=0x07100000
            572	       282	00100524	40c888b3	sub	x17,x17,x12	 x17:0x00000020 x12:0x00000010 x17=0x00000010
            574	       283	00100528	00f717b3	sll	x15,x14,x15	 x14:0x00000000 x15:0x0000001b x15=0x00000000
            576	       284	0010052c	9572	c.add	x10,x28	 x10:0x40000000 x28:0x07100000 x10=0x47100000
            578	       285	0010052e	fe088713	addi	x14,x17,-32	 x17:0x00000010 x14=0xfffffff0
            580	       286	00100532	953e	c.add	x10,x15	 x10:0x47100000 x15:0x00000000 x10=0x47100000
            584	       288	00100534	14074b63	blt	x14,x0,10068a	 x14:0xfffffff0  x0:0x00000000  x0=0x00000000
            588	       290	0010068a	47fd	c.li	x15,31	 x15=0x0000001f
            590	       291	0010068c	411787b3	sub	x15,x15,x17	 x15:0x0000001f x17:0x00000010 x15=0x0000000f
            592	       292	00100690	40000737	lui	x14,0x40000	 x14=0x40000000
            594	       293	00100694	00f75733	srl	x14,x14,x15	 x14:0x40000000 x15:0x0000000f x14=0x00008000
            596	       294	00100698	011817b3	sll	x15,x16,x17	 x16:0x80000000 x17:0x00000010 x15=0x00000000
            600	       296	0010069c	b54d	c.j	10053e	
            602	       297	0010053e	8fed	c.and	x15,x11	 x15:0x00000000 x11:0x00000000 x15=0x00000000
            604	       298	00100540	8f75	c.and	x14,x13	 x14:0x00008000 x13:0x0710c000 x14=0x00008000
            606	       299	00100542	8fd9	c.or	x15,x14	 x15:0x00000000 x14:0x00008000 x15=0x00008000
            610	       301	00100544	e7f1	c.bnez	x15,100610	 x15:0x00008000
            614	       303	00100610	fe160893	addi	x17,x12,-31	 x12:0x00000010 x17=0xfffffff1
            616	       304	00100614	02000793	addi	x15,x0,32	  x0:0x00000000 x15=0x00000020
            618	       305	00100618	40c78833	sub	x16,x15,x12	 x15:0x00000020 x12:0x00000010 x16=0x00000010
            620	       306	0010061c	577d	c.li	x14,-1	 x14=0xffffffff
            622	       307	0010061e	0605	c.addi	x12,1	 x12:0x00000010 x12=0x00000011
            626	       309	00100620	0208c763	blt	x17,x0,10064e	 x17:0xfffffff1  x0:0x00000000  x0=0x00000000
            630	       311	0010064e	48fd	c.li	x17,31	 x17=0x0000001f
            632	       312	00100650	40c887b3	sub	x15,x17,x12	 x17:0x0000001f x12:0x00000011 x15=0x0000000e
            634	       313	00100654	58f9	c.li	x17,-2	 x17=0xfffffffe
            636	       314	00100656	00f898b3	sll	x17,x17,x15	 x17:0xfffffffe x15:0x0000000e x17=0xffff8000
            638	       315	0010065a	00c757b3	srl	x15,x14,x12	 x14:0xffffffff x12:0x00000011 x15=0x00007fff
            640	       316	0010065e	00f8e7b3	or	x15,x17,x15	 x17:0xffff8000 x15:0x00007fff x15=0xffffffff
            642	       317	00100662	00c75633	srl	x12,x14,x12	 x14:0xffffffff x12:0x00000011 x12=0x00007fff
            646	       319	00100666	b7d1	c.j	10062a	
            648	       320	0010062a	8fed	c.and	x15,x11	 x15:0xffffffff x11:0x00000000 x15=0x00000000
            650	       321	0010062c	8ef1	c.and	x13,x12	 x13:0x0710c000 x12:0x00007fff x13=0x00004000
            652	       322	0010062e	01055733	srl	x14,x10,x16	 x10:0x47100000 x16:0x00000010 x14=0x00004710
            654	       323	00100632	8fd5	c.or	x15,x13	 x15:0x00000000 x13:0x00004000 x15=0x00004000
            656	       324	00100634	00f037b3	sltu	x15,x0,x15	  x0:0x00000000 x15:0x00004000 x15=0x00000001
            658	       325	00100638	8b05	c.andi	x14,1	 x14:0x00004710 x14=0x00000000
            660	       326	0010063a	8fd9	c.or	x15,x14	 x15:0x00000001 x14:0x00000000 x15=0x00000001
            662	       327	0010063c	010797b3	sll	x15,x15,x16	 x15:0x00000001 x16:0x00000010 x15=0x00010000
            664	       328	00100640	953e	c.add	x10,x15	 x10:0x47100000 x15:0x00010000 x10=0x47110000
            668	       330	00100642	b711	c.j	100546	
            672	       332	00100546	02034b63	blt	x6,x0,10057c	  x6:0x33330000  x0:0x00000000  x0=0x00000000
            676	       334	0010054a	8082	c.jr	x1	  x1:0x00100a80
            680	       336	00100a80	e24ff0ef	jal	x1,1000a4	  x1=0x00100a84
            682	       337	001000a4	4721	c.li	x14,8	 x14=0x00000008
            684	       338	001000a6	4625	c.li	x12,9	 x12=0x00000009
            686	       339	001000a8	000206b7	lui	x13,0x20	 x13=0x00020000
            688	       340	001000ac	01c55793	srli	x15,x10,0x1c	 x10:0x47110000 x15=0x00000004
            690	       341	001000b0	00f66963	bltu	x12,x15,1000c2	 x12:0x00000009 x15:0x00000004  x0=0x00000000
            692	       342	001000b4	03078793	addi	x15,x15,48	 x15:0x00000004 x15=0x00000034
            696	       344	001000b8	c29c	c.sw	x15,0(x13)	 x13:0x00020000 x15:0x00000034 PA:0x00020000 store:0x00000034 load:0x00000000
            698	       345	001000ba	177d	c.addi	x14,-1	 x14:0x00000008 x14=0x00000007
            700	       346	001000bc	0512	c.slli	x10,0x4	 x10:0x47110000 x10=0x71100000
            704	       348	001000be	f77d	c.bnez	x14,1000ac	 x14:0x00000007
            708	       350	001000ac	01c55793	srli	x15,x10,0x1c	 x10:0x71100000 x15=0x00000007
            710	       351	001000b0	00f66963	bltu	x12,x15,1000c2	 x12:0x00000009 x15:0x00000007  x0=0x00000000
            712	       352	001000b4	03078793	addi	x15,x15,48	 x15:0x00000007 x15=0x00000037
            716	       354	001000b8	c29c	c.sw	x15,0(x13)	 x13:0x00020000 x15:0x00000037 PA:0x00020000 store:0x00000037 load:0x00000000
            718	       355	001000ba	177d	c.addi	x14,-1	 x14:0x00000007 x14=0x00000006
            720	       356	001000bc	0512	c.slli	x10,0x4	 x10:0x71100000 x10=0x11000000
            724	       358	001000be	f77d	c.bnez	x14,1000ac	 x14:0x00000006
            728	       360	001000ac	01c55793	srli	x15,x10,0x1c	 x10:0x11000000 x15=0x00000001
            730	       361	001000b0	00f66963	bltu	x12,x15,1000c2	 x12:0x00000009 x15:0x00000001  x0=0x00000000
            732	       362	001000b4	03078793	addi	x15,x15,48	 x15:0x00000001 x15=0x00000031
            736	       364	001000b8	c29c	c.sw	x15,0(x13)	 x13:0x00020000 x15:0x00000031 PA:0x00020000 store:0x00000031 load:0x00000000
            738	       365	001000ba	177d	c.addi	x14,-1	 x14:0x00000006 x14=0x00000005
            740	       366	001000bc	0512	c.slli	x10,0x4	 x10:0x11000000 x10=0x10000000
            744	       368	001000be	f77d	c.bnez	x14,1000ac	 x14:0x00000005
            748	       370	001000ac	01c55793	srli	x15,x10,0x1c	 x10:0x10000000 x15=0x00000001
            750	       371	001000b0	00f66963	bltu	x12,x15,1000c2	 x12:0x00000009 x15:0x00000001  x0=0x00000000
            752	       372	001000b4	03078793	addi	x15,x15,48	 x15:0x00000001 x15=0x00000031
            756	       374	001000b8	c29c	c.sw	x15,0(x13)	 x13:0x00020000 x15:0x00000031 PA:0x00020000 store:0x00000031 load:0x00000000
            758	       375	001000ba	177d	c.addi	x14,-1	 x14:0x00000005 x14=0x00000004
            760	       376	001000bc	0512	c.slli	x10,0x4	 x10:0x10000000 x10=0x00000000
            764	       378	001000be	f77d	c.bnez	x14,1000ac	 x14:0x00000004
            768	       380	001000ac	01c55793	srli	x15,x10,0x1c	 x10:0x00000000 x15=0x00000000
            770	       381	001000b0	00f66963	bltu	x12,x15,1000c2	 x12:0x00000009 x15:0x00000000  x0=0x00000000
            772	       382	001000b4	03078793	addi	x15,x15,48	 x15:0x00000000 x15=0x00000030
            776	       384	001000b8	c29c	c.sw	x15,0(x13)	 x13:0x00020000 x15:0x00000030 PA:0x00020000 store:0x00000030 load:0x00000000
            778	       385	001000ba	177d	c.addi	x14,-1	 x14:0x00000004 x14=0x00000003
            780	       386	001000bc	0512	c.slli	x10,0x4	 x10:0x00000000 x10=0x00000000
            784	       388	001000be	f77d	c.bnez	x14,1000ac	 x14:0x00000003
            788	       390	001000ac	01c55793	srli	x15,x10,0x1c	 x10:0x00000000 x15=0x00000000
            790	       391	001000b0	00f66963	bltu	x12,x15,1000c2	 x12:0x00000009 x15:0x00000000  x0=0x00000000
            792	       392	001000b4	03078793	addi	x15,x15,48	 x15:0x00000000 x15=0x00000030
            796	       394	001000b8	c29c	c.sw	x15,0(x13)	 x13:0x00020000 x15:0x00000030 PA:0x00020000 store:0x00000030 load:0x00000000
            798	       395	001000ba	177d	c.addi	x14,-1	 x14:0x00000003 x14=0x00000002
            800	       396	001000bc	0512	c.slli	x10,0x4	 x10:0x00000000 x10=0x00000000
            804	       398	001000be	f77d	c.bnez	x14,1000ac	 x14:0x00000002
            808	       400	001000ac	01c55793	srli	x15,x10,0x1c	 x10:0x00000000 x15=0x00000000
            810	       401	001000b0	00f66963	bltu	x12,x15,1000c2	 x12:0x00000009 x15:0x00000000  x0=0x00000000
            812	       402	001000b4	03078793	addi	x15,x15,48	 x15:0x00000000 x15=0x00000030
            816	       404	001000b8	c29c	c.sw	x15,0(x13)	 x13:0x00020000 x15:0x00000030 PA:0x00020000 store:0x00000030 load:0x00000000
            818	       405	001000ba	177d	c.addi	x14,-1	 x14:0x00000002 x14=0x00000001
            820	       406	001000bc	0512	c.slli	x10,0x4	 x10:0x00000000 x10=0x00000000
            824	       408	001000be	f77d	c.bnez	x14,1000ac	 x14:0x00000001
            828	       410	001000ac	01c55793	srli	x15,x10,0x1c	 x10:0x00000000 x15=0x00000000
            830	       411	001000b0	00f66963	bltu	x12,x15,1000c2	 x12:0x00000009 x15:0x00000000  x0=0x00000000
            832	       412	001000b4	03078793	addi	x15,x15,48	 x15:0x00000000 x15=0x00000030
            836	       414	001000b8	c29c	c.sw	x15,0(x13)	 x13:0x00020000 x15:0x00000030 PA:0x00020000 store:0x00000030 load:0x00000000
            838	       415	001000ba	177d	c.addi	x14,-1	 x14:0x00000001 x14=0x00000000
            840	       416	001000bc	0512	c.slli	x10,0x4	 x10:0x00000000 x10=0x00000000
            842	       417	001000be	f77d	c.bnez	x14,1000ac	 x14:0x00000000
            846	       419	001000c0	8082	c.jr	x1	  x1:0x00100a84
            848	       420	00100a84	854a	c.mv	x10,x18	  x0:0x00000000 x18:0x00100ae8 x10=0x00100ae8
            852	       422	00100a86	e0aff0ef	jal	x1,100090	  x1=0x00100a8a
            854	       423	00100090	00020737	lui	x14,0x20	 x14=0x00020000
            858	       425	00100094	00054783	lbu	x15,0(x10)	 x10:0x00100ae8 x15=0x0000000a PA:0x00100ae8 store:0x00000000
            862	       427	00100098	e399	c.bnez	x15,10009e	 x15:0x0000000a
            866	       429	0010009e	0505	c.addi	x10,1	 x10:0x00100ae8 x10=0x00100ae9
            870	       431	001000a0	c31c	c.sw	x15,0(x14)	 x14:0x00020000 x15:0x0000000a PA:0x00020000 store:0x0000000a load:0x00000000
            874	       433	001000a2	bfcd	c.j	100094	
            878	       435	00100094	00054783	lbu	x15,0(x10)	 x10:0x00100ae9 x15=0x00000000 PA:0x00100ae9 store:0x00000000
            880	       436	00100098	e399	c.bnez	x15,10009e	 x15:0x00000000
            882	       437	0010009a	4501	c.li	x10,0	 x10=0x00000000
            886	       439	0010009c	8082	c.jr	x1	  x1:0x00100a8a
            892	       442	00100a8a	fe9410e3	bne	x8,x9,100a6a	  x8:0x00000001  x9:0x00000008  x0=0x00000000
            896	       444	00100a6a	0098	c.addi4spn	x14,x2,64	 x14=0x001ffff0
            898	       445	00100a6c	00241793	slli	x15,x8,0x2	  x8:0x00000001 x15=0x00000004
            900	       446	00100a70	97ba	c.add	x15,x14	 x15:0x00000004 x14:0x001ffff0 x15=0x001ffff4
            904	       448	00100a72	fe07a583	lw	x11,-32(x15)	 x15:0x001ffff4 x11=0x44440000 PA:0x001fffd4 store:0x00000000
            908	       450	00100a76	fc07a503	lw	x10,-64(x15)	 x15:0x001ffff4 x10=0x33330000 PA:0x001fffb4 store:0x00000000
            910	       451	00100a7a	4641	c.li	x12,16	 x12=0x00000010
            912	       452	00100a7c	0405	c.addi	x8,1	  x8:0x00000001  x8=0x00000002
            916	       454	00100a7e	3aa9	c.jal	1003d8	  x1=0x00100a80
            918	       455	001003d8	ffe60693	addi	x13,x12,-2	 x12:0x00000010 x13=0x0000000e
            920	       456	001003dc	4879	c.li	x16,30	 x16=0x0000001e
            922	       457	001003de	87aa	c.mv	x15,x10	  x0:0x00000000 x10:0x33330000 x15=0x33330000
            924	       458	001003e0	872e	c.mv	x14,x11	  x0:0x00000000 x11:0x44440000 x14=0x44440000
            926	       459	001003e2	02d86263	bltu	x16,x13,100406	 x16:0x0000001e x13:0x0000000e  x0=0x00000000
            928	       460	001003e6	cd09	c.beqz	x10,100400	 x10:0x33330000
            930	       461	001003e8	cd81	c.beqz	x11,100400	 x11:0x44440000
            932	       462	001003ea	800006b7	lui	x13,0x80000	 x13=0x80000000
            934	       463	001003ee	00d50c63	beq	x10,x13,100406	 x10:0x33330000 x13:0x80000000  x0=0x00000000
            936	       464	001003f2	00d58a63	beq	x11,x13,100406	 x11:0x44440000 x13:0x80000000  x0=0x00000000
            938	       465	001003f6	00b547b3	xor	x15,x10,x11	 x10:0x33330000 x11:0x44440000 x15=0x77770000
            940	       466	001003fa	0007c963	blt	x15,x0,10040c	 x15:0x77770000  x0:0x00000000  x0=0x00000000
            944	       468	001003fe	a801	c.j	10040e	
            946	       469	0010040e	832a	c.mv	x6,x10	  x0:0x00000000 x10:0x33330000  x6=0x33330000
            948	       470	00100410	12054e63	blt	x10,x0,10054c	 x10:0x33330000  x0:0x00000000  x0=0x00000000
            950	       471	00100414	00b55563	bge	x10,x11,10041e	 x10:0x33330000 x11:0x44440000  x0=0x00000000
            952	       472	00100418	87aa	c.mv	x15,x10	  x0:0x00000000 x10:0x33330000 x15=0x33330000
            954	       473	0010041a	852e	c.mv	x10,x11	  x0:0x00000000 x11:0x44440000 x10=0x44440000
            956	       474	0010041c	85be	c.mv	x11,x15	  x0:0x00000000 x15:0x33330000 x11=0x33330000
            958	       475	0010041e	4789	c.li	x15,2	 x15=0x00000002
            960	       476	00100420	14f60563	beq	x12,x15,10056a	 x12:0x00000010 x15:0x00000002  x0=0x00000000
            962	       477	00100424	00151713	slli	x14,x10,0x1	 x10:0x44440000 x14=0x88880000
            964	       478	00100428	00251793	slli	x15,x10,0x2	 x10:0x44440000 x15=0x11100000
            966	       479	0010042c	12075563	bge	x14,x0,100556	 x14:0x88880000  x0:0x00000000  x0=0x00000000
            968	       480	00100430	4801	c.li	x16,0	 x16=0x00000000
            972	       482	00100432	0007d663	bge	x15,x0,10043e	 x15:0x11100000  x0:0x00000000  x0=0x00000000
            978	       485	0010043e	00179893	slli	x17,x15,0x1	 x15:0x11100000 x17=0x22200000
            980	       486	00100442	40000737	lui	x14,0x40000	 x14=0x40000000
            982	       487	00100446	00e8e8b3	or	x17,x17,x14	 x17:0x22200000 x14:0x40000000 x17=0x62200000
            984	       488	0010044a	01d7d713	srli	x14,x15,0x1d	 x15:0x11100000 x14=0x00000000
            986	       489	0010044e	800007b7	lui	x15,0x80000	 x15=0x80000000
            988	       490	00100452	fff7c793	xori	x15,x15,-1	 x15:0x80000000 x15=0x7fffffff
            990	       491	00100456	00159693	slli	x13,x11,0x1	 x11:0x33330000 x13=0x66660000
            992	       492	0010045a	00f8f8b3	and	x17,x17,x15	 x17:0x62200000 x15:0x7fffffff x17=0x62200000
            994	       493	0010045e	4f01	c.li	x30,0	 x30=0x00000000
            996	       494	00100460	00259793	slli	x15,x11,0x2	 x11:0x33330000 x15=0xcccc0000
           1000	       496	00100464	1006df63	bge	x13,x0,100582	 x13:0x66660000  x0:0x00000000  x0=0x00000000
           1006	       499	00100582	00180693	addi	x13,x16,1	 x16:0x00000000 x13=0x00000001
           1010	       501	00100586	0007c663	blt	x15,x0,100592	 x15:0xcccc0000  x0:0x00000000  x0=0x00000000
           1014	       503	00100592	0786	c.slli	x15,0x1	 x15:0xcccc0000 x15=0x99980000
           1016	       504	00100594	8385	c.srli	x15,0x1	 x15:0x99980000 x15=0x4ccc0000
           1020	       506	00100596	b5c5	c.j	100476	
           1022	       507	00100476	068a	c.slli	x13,0x2	 x13:0x00000001 x13=0x00000004
           1024	       508	00100478	01d7d513	srli	x10,x15,0x1d	 x15:0x4ccc0000 x10=0x00000002
           1026	       509	0010047c	96ba	c.add	x13,x14	 x13:0x00000004 x14:0x00000000 x13=0x00000004
           1028	       510	0010047e	8e89	c.sub	x13,x10	 x13:0x00000004 x10:0x00000002 x13=0x00000002
           1030	       511	00100480	03f00513	addi	x10,x0,63	  x0:0x00000000 x10=0x0000003f
           1032	       512	00100484	04d54463	blt	x10,x13,1004cc	 x10:0x0000003f x13:0x00000002  x0=0x00000000
           1034	       513	00100488	400005b7	lui	x11,0x40000	 x11=0x40000000
           1036	       514	0010048c	0786	c.slli	x15,0x1	 x15:0x4ccc0000 x15=0x99980000
           1038	       515	0010048e	80000537	lui	x10,0x80000	 x10=0x80000000
           1040	       516	00100492	8fcd	c.or	x15,x11	 x15:0x99980000 x11:0x40000000 x15=0xd9980000
           1042	       517	00100494	fff54513	xori	x10,x10,-1	 x10:0x80000000 x10=0x7fffffff
           1044	       518	00100498	fe068593	addi	x11,x13,-32	 x13:0x00000002 x11=0xffffffe2
           1046	       519	0010049c	8fe9	c.and	x15,x10	 x15:0xd9980000 x10:0x7fffffff x15=0x59980000
           1050	       521	0010049e	1205ce63	blt	x11,x0,1005da	 x11:0xffffffe2  x0:0x00000000  x0=0x00000000
           1054	       523	001005da	457d	c.li	x10,31	 x10=0x0000001f
           1056	       524	001005dc	00179593	slli	x11,x15,0x1	 x15:0x59980000 x11=0xb3300000
           1058	       525	001005e0	8d15	c.sub	x10,x13	 x10:0x0000001f x13:0x00000002 x10=0x0000001d
           1060	       526	001005e2	00a595b3	sll	x11,x11,x10	 x11:0xb3300000 x10:0x0000001d x11=0x00000000
           1062	       527	001005e6	00d7d7b3	srl	x15,x15,x13	 x15:0x59980000 x13:0x00000002 x15=0x16660000
           1066	       529	001005ea	bd7d	c.j	1004a8	
           1068	       530	001004a8	97c6	c.add	x15,x17	 x15:0x16660000 x17:0x62200000 x15=0x78860000
           1070	       531	001004aa	88be	c.mv	x17,x15	  x0:0x00000000 x15:0x78860000 x17=0x78860000
           1072	       532	001004ac	8f2e	c.mv	x30,x11	  x0:0x00000000 x11:0x00000000 x30=0x00000000
           1076	       534	001004ae	0007df63	bge	x15,x0,1004cc	 x15:0x78860000  x0:0x00000000  x0=0x00000000
           1080	       536	001004cc	fff60e13	addi	x28,x12,-1	 x12:0x00000010 x28=0x0000000f
           1082	       537	001004d0	0c084463	blt	x16,x0,100598	 x16:0x00000000  x0:0x00000000  x0=0x00000000
           1084	       538	001004d4	00180e93	addi	x29,x16,1	 x16:0x00000000 x29=0x00000001
           1086	       539	001004d8	0fced163	bge	x29,x28,1005ba	 x29:0x00000001 x28:0x0000000f  x0=0x00000000
           1088	       540	001004dc	800006b7	lui	x13,0x80000	 x13=0x80000000
           1090	       541	001004e0	fff6c513	xori	x10,x13,-1	 x13:0x80000000 x10=0x7fffffff
           1092	       542	001004e4	41d557b3	sra	x15,x10,x29	 x10:0x7fffffff x29:0x00000001 x15=0x3fffffff
           1094	       543	001004e8	8d1d	c.sub	x10,x15	 x10:0x7fffffff x15:0x3fffffff x10=0x40000000
           1096	       544	001004ea	14cedd63	bge	x29,x12,100644	 x29:0x00000001 x12:0x00000010  x0=0x00000000
           1098	       545	001004ee	088a	c.slli	x17,0x2	 x17:0x78860000 x17=0xe2180000
           1100	       546	001004f0	fe380593	addi	x11,x16,-29	 x16:0x00000000 x11=0xffffffe3
           1102	       547	001004f4	0028d893	srli	x17,x17,0x2	 x17:0xe2180000 x17=0x38860000
           1104	       548	001004f8	00380793	addi	x15,x16,3	 x16:0x00000000 x15=0x00000003
           1108	       550	001004fc	1c05c063	blt	x11,x0,1006bc	 x11:0xffffffe3  x0:0x00000000  x0=0x00000000
           1112	       552	001006bc	45fd	c.li	x11,31	 x11=0x0000001f
           1114	       553	001006be	8d9d	c.sub	x11,x15	 x11:0x0000001f x15:0x00000003 x11=0x0000001c
           1116	       554	001006c0	00189693	slli	x13,x17,0x1	 x17:0x38860000 x13=0x710c0000
           1118	       555	001006c4	00b696b3	sll	x13,x13,x11	 x13:0x710c0000 x11:0x0000001c x13=0x00000000
           1120	       556	001006c8	00ff55b3	srl	x11,x30,x15	 x30:0x00000000 x15:0x00000003 x11=0x00000000
           1122	       557	001006cc	8dd5	c.or	x11,x13	 x11:0x00000000 x13:0x00000000 x11=0x00000000
           1124	       558	001006ce	00f8d6b3	srl	x13,x17,x15	 x17:0x38860000 x15:0x00000003 x13=0x0710c000
           1128	       560	001006d2	bd15	c.j	100506	
           1130	       561	00100506	47f1	c.li	x15,28	 x15=0x0000001c
           1132	       562	00100508	41d787b3	sub	x15,x15,x29	 x15:0x0000001c x29:0x00000001 x15=0x0000001b
           1134	       563	0010050c	ffd60813	addi	x16,x12,-3	 x12:0x00000010 x16=0x0000000d
           1136	       564	00100510	0d0ede63	bge	x29,x16,1005ec	 x29:0x00000001 x16:0x0000000d  x0=0x00000000
           1138	       565	00100514	80000837	lui	x16,0x80000	 x16=0x80000000
           1140	       566	00100518	41c85e33	sra	x28,x16,x28	 x16:0x80000000 x28:0x0000000f x28=0xffff0000
           1142	       567	0010051c	02000893	addi	x17,x0,32	  x0:0x00000000 x17=0x00000020
           1144	       568	00100520	00de7e33	and	x28,x28,x13	 x28:0xffff0000 x13:0x0710c000 x28=0x07100000
           1146	       569	00100524	40c888b3	sub	x17,x17,x12	 x17:0x00000020 x12:0x00000010 x17=0x00000010
           1148	       570	00100528	00f717b3	sll	x15,x14,x15	 x14:0x00000000 x15:0x0000001b x15=0x00000000
           1150	       571	0010052c	9572	c.add	x10,x28	 x10:0x40000000 x28:0x07100000 x10=0x47100000
           1152	       572	0010052e	fe088713	addi	x14,x17,-32	 x17:0x00000010 x14=0xfffffff0
           1154	       573	00100532	953e	c.add	x10,x15	 x10:0x47100000 x15:0x00000000 x10=0x47100000
           1158	       575	00100534	14074b63	blt	x14,x0,10068a	 x14:0xfffffff0  x0:0x00000000  x0=0x00000000
           1162	       577	0010068a	47fd	c.li	x15,31	 x15=0x0000001f
           1164	       578	0010068c	411787b3	sub	x15,x15,x17	 x15:0x0000001f x17:0x00000010 x15=0x0000000f
           1166	       579	00100690	40000737	lui	x14,0x40000	 x14=0x40000000
           1168	       580	00100694	00f75733	srl	x14,x14,x15	 x14:0x40000000 x15:0x0000000f x14=0x00008000
           1170	       581	00100698	011817b3	sll	x15,x16,x17	 x16:0x80000000 x17:0x00000010 x15=0x00000000
           1174	       583	0010069c	b54d	c.j	10053e	
           1176	       584	0010053e	8fed	c.and	x15,x11	 x15:0x00000000 x11:0x00000000 x15=0x00000000
           1178	       585	00100540	8f75	c.and	x14,x13	 x14:0x00008000 x13:0x0710c000 x14=0x00008000
           1180	       586	00100542	8fd9	c.or	x15,x14	 x15:0x00000000 x14:0x00008000 x15=0x00008000
           1184	       588	00100544	e7f1	c.bnez	x15,100610	 x15:0x00008000
           1188	       590	00100610	fe160893	addi	x17,x12,-31	 x12:0x00000010 x17=0xfffffff1
           1190	       591	00100614	02000793	addi	x15,x0,32	  x0:0x00000000 x15=0x00000020
           1192	       592	00100618	40c78833	sub	x16,x15,x12	 x15:0x00000020 x12:0x00000010 x16=0x00000010
           1194	       593	0010061c	577d	c.li	x14,-1	 x14=0xffffffff
           1196	       594	0010061e	0605	c.addi	x12,1	 x12:0x00000010 x12=0x00000011
           1200	       596	00100620	0208c763	blt	x17,x0,10064e	 x17:0xfffffff1  x0:0x00000000  x0=0x00000000
           1204	       598	0010064e	48fd	c.li	x17,31	 x17=0x0000001f
           1206	       599	00100650	40c887b3	sub	x15,x17,x12	 x17:0x0000001f x12:0x00000011 x15=0x0000000e
           1208	       600	00100654	58f9	c.li	x17,-2	 x17=0xfffffffe
           1210	       601	00100656	00f898b3	sll	x17,x17,x15	 x17:0xfffffffe x15:0x0000000e x17=0xffff8000
           1212	       602	0010065a	00c757b3	srl	x15,x14,x12	 x14:0xffffffff x12:0x00000011 x15=0x00007fff
           1214	       603	0010065e	00f8e7b3	or	x15,x17,x15	 x17:0xffff8000 x15:0x00007fff x15=0xffffffff
           1216	       604	00100662	00c75633	srl	x12,x14,x12	 x14:0xffffffff x12:0x00000011 x12=0x00007fff
           1220	       606	00100666	b7d1	c.j	10062a	
           1222	       607	0010062a	8fed	c.and	x15,x11	 x15:0xffffffff x11:0x00000000 x15=0x00000000
           1224	       608	0010062c	8ef1	c.and	x13,x12	 x13:0x0710c000 x12:0x00007fff x13=0x00004000
           1226	       609	0010062e	01055733	srl	x14,x10,x16	 x10:0x47100000 x16:0x00000010 x14=0x00004710
           1228	       610	00100632	8fd5	c.or	x15,x13	 x15:0x00000000 x13:0x00004000 x15=0x00004000
           1230	       611	00100634	00f037b3	sltu	x15,x0,x15	  x0:0x00000000 x15:0x00004000 x15=0x00000001
           1232	       612	00100638	8b05	c.andi	x14,1	 x14:0x00004710 x14=0x00000000
           1234	       613	0010063a	8fd9	c.or	x15,x14	 x15:0x00000001 x14:0x00000000 x15=0x00000001
           1236	       614	0010063c	010797b3	sll	x15,x15,x16	 x15:0x00000001 x16:0x00000010 x15=0x00010000
           1238	       615	00100640	953e	c.add	x10,x15	 x10:0x47100000 x15:0x00010000 x10=0x47110000
           1242	       617	00100642	b711	c.j	100546	
           1246	       619	00100546	02034b63	blt	x6,x0,10057c	  x6:0x33330000  x0:0x00000000  x0=0x00000000
           1250	       621	0010054a	8082	c.jr	x1	  x1:0x00100a80
           1254	       623	00100a80	e24ff0ef	jal	x1,1000a4	  x1=0x00100a84
           1256	       624	001000a4	4721	c.li	x14,8	 x14=0x00000008
           1258	       625	001000a6	4625	c.li	x12,9	 x12=0x00000009
           1260	       626	001000a8	000206b7	lui	x13,0x20	 x13=0x00020000
           1262	       627	001000ac	01c55793	srli	x15,x10,0x1c	 x10:0x47110000 x15=0x00000004
           1264	       628	001000b0	00f66963	bltu	x12,x15,1000c2	 x12:0x00000009 x15:0x00000004  x0=0x00000000
           1266	       629	001000b4	03078793	addi	x15,x15,48	 x15:0x00000004 x15=0x00000034
           1270	       631	001000b8	c29c	c.sw	x15,0(x13)	 x13:0x00020000 x15:0x00000034 PA:0x00020000 store:0x00000034 load:0x00000000
           1272	       632	001000ba	177d	c.addi	x14,-1	 x14:0x00000008 x14=0x00000007
           1274	       633	001000bc	0512	c.slli	x10,0x4	 x10:0x47110000 x10=0x71100000
           1278	       635	001000be	f77d	c.bnez	x14,1000ac	 x14:0x00000007
           1282	       637	001000ac	01c55793	srli	x15,x10,0x1c	 x10:0x71100000 x15=0x00000007
           1284	       638	001000b0	00f66963	bltu	x12,x15,1000c2	 x12:0x00000009 x15:0x00000007  x0=0x00000000
           1286	       639	001000b4	03078793	addi	x15,x15,48	 x15:0x00000007 x15=0x00000037
           1290	       641	001000b8	c29c	c.sw	x15,0(x13)	 x13:0x00020000 x15:0x00000037 PA:0x00020000 store:0x00000037 load:0x00000000
           1292	       642	001000ba	177d	c.addi	x14,-1	 x14:0x00000007 x14=0x00000006
           1294	       643	001000bc	0512	c.slli	x10,0x4	 x10:0x71100000 x10=0x11000000
           1298	       645	001000be	f77d	c.bnez	x14,1000ac	 x14:0x00000006
           1302	       647	001000ac	01c55793	srli	x15,x10,0x1c	 x10:0x11000000 x15=0x00000001
           1304	       648	001000b0	00f66963	bltu	x12,x15,1000c2	 x12:0x00000009 x15:0x00000001  x0=0x00000000
           1306	       649	001000b4	03078793	addi	x15,x15,48	 x15:0x00000001 x15=0x00000031
           1310	       651	001000b8	c29c	c.sw	x15,0(x13)	 x13:0x00020000 x15:0x00000031 PA:0x00020000 store:0x00000031 load:0x00000000
           1312	       652	001000ba	177d	c.addi	x14,-1	 x14:0x00000006 x14=0x00000005
           1314	       653	001000bc	0512	c.slli	x10,0x4	 x10:0x11000000 x10=0x10000000
           1318	       655	001000be	f77d	c.bnez	x14,1000ac	 x14:0x00000005
           1322	       657	001000ac	01c55793	srli	x15,x10,0x1c	 x10:0x10000000 x15=0x00000001
           1324	       658	001000b0	00f66963	bltu	x12,x15,1000c2	 x12:0x00000009 x15:0x00000001  x0=0x00000000
           1326	       659	001000b4	03078793	addi	x15,x15,48	 x15:0x00000001 x15=0x00000031
           1330	       661	001000b8	c29c	c.sw	x15,0(x13)	 x13:0x00020000 x15:0x00000031 PA:0x00020000 store:0x00000031 load:0x00000000
           1332	       662	001000ba	177d	c.addi	x14,-1	 x14:0x00000005 x14=0x00000004
           1334	       663	001000bc	0512	c.slli	x10,0x4	 x10:0x10000000 x10=0x00000000
           1338	       665	001000be	f77d	c.bnez	x14,1000ac	 x14:0x00000004
           1342	       667	001000ac	01c55793	srli	x15,x10,0x1c	 x10:0x00000000 x15=0x00000000
           1344	       668	001000b0	00f66963	bltu	x12,x15,1000c2	 x12:0x00000009 x15:0x00000000  x0=0x00000000
           1346	       669	001000b4	03078793	addi	x15,x15,48	 x15:0x00000000 x15=0x00000030
           1350	       671	001000b8	c29c	c.sw	x15,0(x13)	 x13:0x00020000 x15:0x00000030 PA:0x00020000 store:0x00000030 load:0x00000000
           1352	       672	001000ba	177d	c.addi	x14,-1	 x14:0x00000004 x14=0x00000003
           1354	       673	001000bc	0512	c.slli	x10,0x4	 x10:0x00000000 x10=0x00000000
           1358	       675	001000be	f77d	c.bnez	x14,1000ac	 x14:0x00000003
           1362	       677	001000ac	01c55793	srli	x15,x10,0x1c	 x10:0x00000000 x15=0x00000000
           1364	       678	001000b0	00f66963	bltu	x12,x15,1000c2	 x12:0x00000009 x15:0x00000000  x0=0x00000000
           1366	       679	001000b4	03078793	addi	x15,x15,48	 x15:0x00000000 x15=0x00000030
           1370	       681	001000b8	c29c	c.sw	x15,0(x13)	 x13:0x00020000 x15:0x00000030 PA:0x00020000 store:0x00000030 load:0x00000000
           1372	       682	001000ba	177d	c.addi	x14,-1	 x14:0x00000003 x14=0x00000002
           1374	       683	001000bc	0512	c.slli	x10,0x4	 x10:0x00000000 x10=0x00000000
           1378	       685	001000be	f77d	c.bnez	x14,1000ac	 x14:0x00000002
           1382	       687	001000ac	01c55793	srli	x15,x10,0x1c	 x10:0x00000000 x15=0x00000000
           1384	       688	001000b0	00f66963	bltu	x12,x15,1000c2	 x12:0x00000009 x15:0x00000000  x0=0x00000000
           1386	       689	001000b4	03078793	addi	x15,x15,48	 x15:0x00000000 x15=0x00000030
           1390	       691	001000b8	c29c	c.sw	x15,0(x13)	 x13:0x00020000 x15:0x00000030 PA:0x00020000 store:0x00000030 load:0x00000000
           1392	       692	001000ba	177d	c.addi	x14,-1	 x14:0x00000002 x14=0x00000001
           1394	       693	001000bc	0512	c.slli	x10,0x4	 x10:0x00000000 x10=0x00000000
           1398	       695	001000be	f77d	c.bnez	x14,1000ac	 x14:0x00000001
           1402	       697	001000ac	01c55793	srli	x15,x10,0x1c	 x10:0x00000000 x15=0x00000000
           1404	       698	001000b0	00f66963	bltu	x12,x15,1000c2	 x12:0x00000009 x15:0x00000000  x0=0x00000000
           1406	       699	001000b4	03078793	addi	x15,x15,48	 x15:0x00000000 x15=0x00000030
           1410	       701	001000b8	c29c	c.sw	x15,0(x13)	 x13:0x00020000 x15:0x00000030 PA:0x00020000 store:0x00000030 load:0x00000000
           1412	       702	001000ba	177d	c.addi	x14,-1	 x14:0x00000001 x14=0x00000000
           1414	       703	001000bc	0512	c.slli	x10,0x4	 x10:0x00000000 x10=0x00000000
           1416	       704	001000be	f77d	c.bnez	x14,1000ac	 x14:0x00000000
           1420	       706	001000c0	8082	c.jr	x1	  x1:0x00100a84
           1422	       707	00100a84	854a	c.mv	x10,x18	  x0:0x00000000 x18:0x00100ae8 x10=0x00100ae8
           1426	       709	00100a86	e0aff0ef	jal	x1,100090	  x1=0x00100a8a
           1428	       710	00100090	00020737	lui	x14,0x20	 x14=0x00020000
           1432	       712	00100094	00054783	lbu	x15,0(x10)	 x10:0x00100ae8 x15=0x0000000a PA:0x00100ae8 store:0x00000000
           1436	       714	00100098	e399	c.bnez	x15,10009e	 x15:0x0000000a
           1440	       716	0010009e	0505	c.addi	x10,1	 x10:0x00100ae8 x10=0x00100ae9
           1444	       718	001000a0	c31c	c.sw	x15,0(x14)	 x14:0x00020000 x15:0x0000000a PA:0x00020000 store:0x0000000a load:0x00000000
           1448	       720	001000a2	bfcd	c.j	100094	
           1452	       722	00100094	00054783	lbu	x15,0(x10)	 x10:0x00100ae9 x15=0x00000000 PA:0x00100ae9 store:0x00000000
           1454	       723	00100098	e399	c.bnez	x15,10009e	 x15:0x00000000
           1456	       724	0010009a	4501	c.li	x10,0	 x10=0x00000000
           1460	       726	0010009c	8082	c.jr	x1	  x1:0x00100a8a
           1466	       729	00100a8a	fe9410e3	bne	x8,x9,100a6a	  x8:0x00000002  x9:0x00000008  x0=0x00000000
           1470	       731	00100a6a	0098	c.addi4spn	x14,x2,64	 x14=0x001ffff0
           1472	       732	00100a6c	00241793	slli	x15,x8,0x2	  x8:0x00000002 x15=0x00000008
           1474	       733	00100a70	97ba	c.add	x15,x14	 x15:0x00000008 x14:0x001ffff0 x15=0x001ffff8
           1478	       735	00100a72	fe07a583	lw	x11,-32(x15)	 x15:0x001ffff8 x11=0x44440000 PA:0x001fffd8 store:0x00000000
           1482	       737	00100a76	fc07a503	lw	x10,-64(x15)	 x15:0x001ffff8 x10=0x33330000 PA:0x001fffb8 store:0x00000000
           1484	       738	00100a7a	4641	c.li	x12,16	 x12=0x00000010
           1486	       739	00100a7c	0405	c.addi	x8,1	  x8:0x00000002  x8=0x00000003
           1490	       741	00100a7e	3aa9	c.jal	1003d8	  x1=0x00100a80
           1492	       742	001003d8	ffe60693	addi	x13,x12,-2	 x12:0x00000010 x13=0x0000000e
           1494	       743	001003dc	4879	c.li	x16,30	 x16=0x0000001e
           1496	       744	001003de	87aa	c.mv	x15,x10	  x0:0x00000000 x10:0x33330000 x15=0x33330000
           1498	       745	001003e0	872e	c.mv	x14,x11	  x0:0x00000000 x11:0x44440000 x14=0x44440000
           1500	       746	001003e2	02d86263	bltu	x16,x13,100406	 x16:0x0000001e x13:0x0000000e  x0=0x00000000
           1502	       747	001003e6	cd09	c.beqz	x10,100400	 x10:0x33330000
           1504	       748	001003e8	cd81	c.beqz	x11,100400	 x11:0x44440000
           1506	       749	001003ea	800006b7	lui	x13,0x80000	 x13=0x80000000
           1508	       750	001003ee	00d50c63	beq	x10,x13,100406	 x10:0x33330000 x13:0x80000000  x0=0x00000000
           1510	       751	001003f2	00d58a63	beq	x11,x13,100406	 x11:0x44440000 x13:0x80000000  x0=0x00000000
           1512	       752	001003f6	00b547b3	xor	x15,x10,x11	 x10:0x33330000 x11:0x44440000 x15=0x77770000
           1514	       753	001003fa	0007c963	blt	x15,x0,10040c	 x15:0x77770000  x0:0x00000000  x0=0x00000000
           1518	       755	001003fe	a801	c.j	10040e	
           1520	       756	0010040e	832a	c.mv	x6,x10	  x0:0x00000000 x10:0x33330000  x6=0x33330000
           1522	       757	00100410	12054e63	blt	x10,x0,10054c	 x10:0x33330000  x0:0x00000000  x0=0x00000000
           1524	       758	00100414	00b55563	bge	x10,x11,10041e	 x10:0x33330000 x11:0x44440000  x0=0x00000000
           1526	       759	00100418	87aa	c.mv	x15,x10	  x0:0x00000000 x10:0x33330000 x15=0x33330000
           1528	       760	0010041a	852e	c.mv	x10,x11	  x0:0x00000000 x11:0x44440000 x10=0x44440000
           1530	       761	0010041c	85be	c.mv	x11,x15	  x0:0x00000000 x15:0x33330000 x11=0x33330000
           1532	       762	0010041e	4789	c.li	x15,2	 x15=0x00000002
           1534	       763	00100420	14f60563	beq	x12,x15,10056a	 x12:0x00000010 x15:0x00000002  x0=0x00000000
           1536	       764	00100424	00151713	slli	x14,x10,0x1	 x10:0x44440000 x14=0x88880000
           1538	       765	00100428	00251793	slli	x15,x10,0x2	 x10:0x44440000 x15=0x11100000
           1540	       766	0010042c	12075563	bge	x14,x0,100556	 x14:0x88880000  x0:0x00000000  x0=0x00000000
           1542	       767	00100430	4801	c.li	x16,0	 x16=0x00000000
           1546	       769	00100432	0007d663	bge	x15,x0,10043e	 x15:0x11100000  x0:0x00000000  x0=0x00000000
           1552	       772	0010043e	00179893	slli	x17,x15,0x1	 x15:0x11100000 x17=0x22200000
           1554	       773	00100442	40000737	lui	x14,0x40000	 x14=0x40000000
           1556	       774	00100446	00e8e8b3	or	x17,x17,x14	 x17:0x22200000 x14:0x40000000 x17=0x62200000
           1558	       775	0010044a	01d7d713	srli	x14,x15,0x1d	 x15:0x11100000 x14=0x00000000
           1560	       776	0010044e	800007b7	lui	x15,0x80000	 x15=0x80000000
           1562	       777	00100452	fff7c793	xori	x15,x15,-1	 x15:0x80000000 x15=0x7fffffff
           1564	       778	00100456	00159693	slli	x13,x11,0x1	 x11:0x33330000 x13=0x66660000
           1566	       779	0010045a	00f8f8b3	and	x17,x17,x15	 x17:0x62200000 x15:0x7fffffff x17=0x62200000
           1568	       780	0010045e	4f01	c.li	x30,0	 x30=0x00000000
           1570	       781	00100460	00259793	slli	x15,x11,0x2	 x11:0x33330000 x15=0xcccc0000
           1574	       783	00100464	1006df63	bge	x13,x0,100582	 x13:0x66660000  x0:0x00000000  x0=0x00000000
           1580	       786	00100582	00180693	addi	x13,x16,1	 x16:0x00000000 x13=0x00000001
           1584	       788	00100586	0007c663	blt	x15,x0,100592	 x15:0xcccc0000  x0:0x00000000  x0=0x00000000
           1588	       790	00100592	0786	c.slli	x15,0x1	 x15:0xcccc0000 x15=0x99980000
           1590	       791	00100594	8385	c.srli	x15,0x1	 x15:0x99980000 x15=0x4ccc0000
           1594	       793	00100596	b5c5	c.j	100476	
           1596	       794	00100476	068a	c.slli	x13,0x2	 x13:0x00000001 x13=0x00000004
           1598	       795	00100478	01d7d513	srli	x10,x15,0x1d	 x15:0x4ccc0000 x10=0x00000002
           1600	       796	0010047c	96ba	c.add	x13,x14	 x13:0x00000004 x14:0x00000000 x13=0x00000004
           1602	       797	0010047e	8e89	c.sub	x13,x10	 x13:0x00000004 x10:0x00000002 x13=0x00000002
           1604	       798	00100480	03f00513	addi	x10,x0,63	  x0:0x00000000 x10=0x0000003f
           1606	       799	00100484	04d54463	blt	x10,x13,1004cc	 x10:0x0000003f x13:0x00000002  x0=0x00000000
           1608	       800	00100488	400005b7	lui	x11,0x40000	 x11=0x40000000
           1610	       801	0010048c	0786	c.slli	x15,0x1	 x15:0x4ccc0000 x15=0x99980000
           1612	       802	0010048e	80000537	lui	x10,0x80000	 x10=0x80000000
           1614	       803	00100492	8fcd	c.or	x15,x11	 x15:0x99980000 x11:0x40000000 x15=0xd9980000
           1616	       804	00100494	fff54513	xori	x10,x10,-1	 x10:0x80000000 x10=0x7fffffff
           1618	       805	00100498	fe068593	addi	x11,x13,-32	 x13:0x00000002 x11=0xffffffe2
           1620	       806	0010049c	8fe9	c.and	x15,x10	 x15:0xd9980000 x10:0x7fffffff x15=0x59980000
           1624	       808	0010049e	1205ce63	blt	x11,x0,1005da	 x11:0xffffffe2  x0:0x00000000  x0=0x00000000
           1628	       810	001005da	457d	c.li	x10,31	 x10=0x0000001f
           1630	       811	001005dc	00179593	slli	x11,x15,0x1	 x15:0x59980000 x11=0xb3300000
           1632	       812	001005e0	8d15	c.sub	x10,x13	 x10:0x0000001f x13:0x00000002 x10=0x0000001d
           1634	       813	001005e2	00a595b3	sll	x11,x11,x10	 x11:0xb3300000 x10:0x0000001d x11=0x00000000
           1636	       814	001005e6	00d7d7b3	srl	x15,x15,x13	 x15:0x59980000 x13:0x00000002 x15=0x16660000
           1640	       816	001005ea	bd7d	c.j	1004a8	
           1642	       817	001004a8	97c6	c.add	x15,x17	 x15:0x16660000 x17:0x62200000 x15=0x78860000
           1644	       818	001004aa	88be	c.mv	x17,x15	  x0:0x00000000 x15:0x78860000 x17=0x78860000
           1646	       819	001004ac	8f2e	c.mv	x30,x11	  x0:0x00000000 x11:0x00000000 x30=0x00000000
           1650	       821	001004ae	0007df63	bge	x15,x0,1004cc	 x15:0x78860000  x0:0x00000000  x0=0x00000000
           1654	       823	001004cc	fff60e13	addi	x28,x12,-1	 x12:0x00000010 x28=0x0000000f
           1656	       824	001004d0	0c084463	blt	x16,x0,100598	 x16:0x00000000  x0:0x00000000  x0=0x00000000
           1658	       825	001004d4	00180e93	addi	x29,x16,1	 x16:0x00000000 x29=0x00000001
           1660	       826	001004d8	0fced163	bge	x29,x28,1005ba	 x29:0x00000001 x28:0x0000000f  x0=0x00000000
           1662	       827	001004dc	800006b7	lui	x13,0x80000	 x13=0x80000000
           1664	       828	001004e0	fff6c513	xori	x10,x13,-1	 x13:0x80000000 x10=0x7fffffff
           1666	       829	001004e4	41d557b3	sra	x15,x10,x29	 x10:0x7fffffff x29:0x00000001 x15=0x3fffffff
           1668	       830	001004e8	8d1d	c.sub	x10,x15	 x10:0x7fffffff x15:0x3fffffff x10=0x40000000
           1670	       831	001004ea	14cedd63	bge	x29,x12,100644	 x29:0x00000001 x12:0x00000010  x0=0x00000000
           1672	       832	001004ee	088a	c.slli	x17,0x2	 x17:0x78860000 x17=0xe2180000
           1674	       833	001004f0	fe380593	addi	x11,x16,-29	 x16:0x00000000 x11=0xffffffe3
           1676	       834	001004f4	0028d893	srli	x17,x17,0x2	 x17:0xe2180000 x17=0x38860000
           1678	       835	001004f8	00380793	addi	x15,x16,3	 x16:0x00000000 x15=0x00000003
           1682	       837	001004fc	1c05c063	blt	x11,x0,1006bc	 x11:0xffffffe3  x0:0x00000000  x0=0x00000000
           1686	       839	001006bc	45fd	c.li	x11,31	 x11=0x0000001f
           1688	       840	001006be	8d9d	c.sub	x11,x15	 x11:0x0000001f x15:0x00000003 x11=0x0000001c
           1690	       841	001006c0	00189693	slli	x13,x17,0x1	 x17:0x38860000 x13=0x710c0000
           1692	       842	001006c4	00b696b3	sll	x13,x13,x11	 x13:0x710c0000 x11:0x0000001c x13=0x00000000
           1694	       843	001006c8	00ff55b3	srl	x11,x30,x15	 x30:0x00000000 x15:0x00000003 x11=0x00000000
           1696	       844	001006cc	8dd5	c.or	x11,x13	 x11:0x00000000 x13:0x00000000 x11=0x00000000
           1698	       845	001006ce	00f8d6b3	srl	x13,x17,x15	 x17:0x38860000 x15:0x00000003 x13=0x0710c000
           1702	       847	001006d2	bd15	c.j	100506	
           1704	       848	00100506	47f1	c.li	x15,28	 x15=0x0000001c
           1706	       849	00100508	41d787b3	sub	x15,x15,x29	 x15:0x0000001c x29:0x00000001 x15=0x0000001b
           1708	       850	0010050c	ffd60813	addi	x16,x12,-3	 x12:0x00000010 x16=0x0000000d
           1710	       851	00100510	0d0ede63	bge	x29,x16,1005ec	 x29:0x00000001 x16:0x0000000d  x0=0x00000000
           1712	       852	00100514	80000837	lui	x16,0x80000	 x16=0x80000000
           1714	       853	00100518	41c85e33	sra	x28,x16,x28	 x16:0x80000000 x28:0x0000000f x28=0xffff0000
           1716	       854	0010051c	02000893	addi	x17,x0,32	  x0:0x00000000 x17=0x00000020
           1718	       855	00100520	00de7e33	and	x28,x28,x13	 x28:0xffff0000 x13:0x0710c000 x28=0x07100000
           1720	       856	00100524	40c888b3	sub	x17,x17,x12	 x17:0x00000020 x12:0x00000010 x17=0x00000010
           1722	       857	00100528	00f717b3	sll	x15,x14,x15	 x14:0x00000000 x15:0x0000001b x15=0x00000000
           1724	       858	0010052c	9572	c.add	x10,x28	 x10:0x40000000 x28:0x07100000 x10=0x47100000
           1726	       859	0010052e	fe088713	addi	x14,x17,-32	 x17:0x00000010 x14=0xfffffff0
           1728	       860	00100532	953e	c.add	x10,x15	 x10:0x47100000 x15:0x00000000 x10=0x47100000
           1732	       862	00100534	14074b63	blt	x14,x0,10068a	 x14:0xfffffff0  x0:0x00000000  x0=0x00000000
           1736	       864	0010068a	47fd	c.li	x15,31	 x15=0x0000001f
           1738	       865	0010068c	411787b3	sub	x15,x15,x17	 x15:0x0000001f x17:0x00000010 x15=0x0000000f
           1740	       866	00100690	40000737	lui	x14,0x40000	 x14=0x40000000
           1742	       867	00100694	00f75733	srl	x14,x14,x15	 x14:0x40000000 x15:0x0000000f x14=0x00008000
           1744	       868	00100698	011817b3	sll	x15,x16,x17	 x16:0x80000000 x17:0x00000010 x15=0x00000000
           1748	       870	0010069c	b54d	c.j	10053e	
           1750	       871	0010053e	8fed	c.and	x15,x11	 x15:0x00000000 x11:0x00000000 x15=0x00000000
           1752	       872	00100540	8f75	c.and	x14,x13	 x14:0x00008000 x13:0x0710c000 x14=0x00008000
           1754	       873	00100542	8fd9	c.or	x15,x14	 x15:0x00000000 x14:0x00008000 x15=0x00008000
           1758	       875	00100544	e7f1	c.bnez	x15,100610	 x15:0x00008000
           1762	       877	00100610	fe160893	addi	x17,x12,-31	 x12:0x00000010 x17=0xfffffff1
           1764	       878	00100614	02000793	addi	x15,x0,32	  x0:0x00000000 x15=0x00000020
           1766	       879	00100618	40c78833	sub	x16,x15,x12	 x15:0x00000020 x12:0x00000010 x16=0x00000010
           1768	       880	0010061c	577d	c.li	x14,-1	 x14=0xffffffff
           1770	       881	0010061e	0605	c.addi	x12,1	 x12:0x00000010 x12=0x00000011
           1774	       883	00100620	0208c763	blt	x17,x0,10064e	 x17:0xfffffff1  x0:0x00000000  x0=0x00000000
           1778	       885	0010064e	48fd	c.li	x17,31	 x17=0x0000001f
           1780	       886	00100650	40c887b3	sub	x15,x17,x12	 x17:0x0000001f x12:0x00000011 x15=0x0000000e
           1782	       887	00100654	58f9	c.li	x17,-2	 x17=0xfffffffe
           1784	       888	00100656	00f898b3	sll	x17,x17,x15	 x17:0xfffffffe x15:0x0000000e x17=0xffff8000
           1786	       889	0010065a	00c757b3	srl	x15,x14,x12	 x14:0xffffffff x12:0x00000011 x15=0x00007fff
           1788	       890	0010065e	00f8e7b3	or	x15,x17,x15	 x17:0xffff8000 x15:0x00007fff x15=0xffffffff
           1790	       891	00100662	00c75633	srl	x12,x14,x12	 x14:0xffffffff x12:0x00000011 x12=0x00007fff
           1794	       893	00100666	b7d1	c.j	10062a	
           1796	       894	0010062a	8fed	c.and	x15,x11	 x15:0xffffffff x11:0x00000000 x15=0x00000000
           1798	       895	0010062c	8ef1	c.and	x13,x12	 x13:0x0710c000 x12:0x00007fff x13=0x00004000
           1800	       896	0010062e	01055733	srl	x14,x10,x16	 x10:0x47100000 x16:0x00000010 x14=0x00004710
           1802	       897	00100632	8fd5	c.or	x15,x13	 x15:0x00000000 x13:0x00004000 x15=0x00004000
           1804	       898	00100634	00f037b3	sltu	x15,x0,x15	  x0:0x00000000 x15:0x00004000 x15=0x00000001
           1806	       899	00100638	8b05	c.andi	x14,1	 x14:0x00004710 x14=0x00000000
           1808	       900	0010063a	8fd9	c.or	x15,x14	 x15:0x00000001 x14:0x00000000 x15=0x00000001
           1810	       901	0010063c	010797b3	sll	x15,x15,x16	 x15:0x00000001 x16:0x00000010 x15=0x00010000
           1812	       902	00100640	953e	c.add	x10,x15	 x10:0x47100000 x15:0x00010000 x10=0x47110000
           1816	       904	00100642	b711	c.j	100546	
           1820	       906	00100546	02034b63	blt	x6,x0,10057c	  x6:0x33330000  x0:0x00000000  x0=0x00000000
           1824	       908	0010054a	8082	c.jr	x1	  x1:0x00100a80
           1828	       910	00100a80	e24ff0ef	jal	x1,1000a4	  x1=0x00100a84
           1830	       911	001000a4	4721	c.li	x14,8	 x14=0x00000008
           1832	       912	001000a6	4625	c.li	x12,9	 x12=0x00000009
           1834	       913	001000a8	000206b7	lui	x13,0x20	 x13=0x00020000
           1836	       914	001000ac	01c55793	srli	x15,x10,0x1c	 x10:0x47110000 x15=0x00000004
           1838	       915	001000b0	00f66963	bltu	x12,x15,1000c2	 x12:0x00000009 x15:0x00000004  x0=0x00000000
           1840	       916	001000b4	03078793	addi	x15,x15,48	 x15:0x00000004 x15=0x00000034
           1844	       918	001000b8	c29c	c.sw	x15,0(x13)	 x13:0x00020000 x15:0x00000034 PA:0x00020000 store:0x00000034 load:0x00000000
           1846	       919	001000ba	177d	c.addi	x14,-1	 x14:0x00000008 x14=0x00000007
           1848	       920	001000bc	0512	c.slli	x10,0x4	 x10:0x47110000 x10=0x71100000
           1852	       922	001000be	f77d	c.bnez	x14,1000ac	 x14:0x00000007
           1856	       924	001000ac	01c55793	srli	x15,x10,0x1c	 x10:0x71100000 x15=0x00000007
           1858	       925	001000b0	00f66963	bltu	x12,x15,1000c2	 x12:0x00000009 x15:0x00000007  x0=0x00000000
           1860	       926	001000b4	03078793	addi	x15,x15,48	 x15:0x00000007 x15=0x00000037
           1864	       928	001000b8	c29c	c.sw	x15,0(x13)	 x13:0x00020000 x15:0x00000037 PA:0x00020000 store:0x00000037 load:0x00000000
           1866	       929	001000ba	177d	c.addi	x14,-1	 x14:0x00000007 x14=0x00000006
           1868	       930	001000bc	0512	c.slli	x10,0x4	 x10:0x71100000 x10=0x11000000
           1872	       932	001000be	f77d	c.bnez	x14,1000ac	 x14:0x00000006
           1876	       934	001000ac	01c55793	srli	x15,x10,0x1c	 x10:0x11000000 x15=0x00000001
           1878	       935	001000b0	00f66963	bltu	x12,x15,1000c2	 x12:0x00000009 x15:0x00000001  x0=0x00000000
           1880	       936	001000b4	03078793	addi	x15,x15,48	 x15:0x00000001 x15=0x00000031
           1884	       938	001000b8	c29c	c.sw	x15,0(x13)	 x13:0x00020000 x15:0x00000031 PA:0x00020000 store:0x00000031 load:0x00000000
           1886	       939	001000ba	177d	c.addi	x14,-1	 x14:0x00000006 x14=0x00000005
           1888	       940	001000bc	0512	c.slli	x10,0x4	 x10:0x11000000 x10=0x10000000
           1892	       942	001000be	f77d	c.bnez	x14,1000ac	 x14:0x00000005
           1896	       944	001000ac	01c55793	srli	x15,x10,0x1c	 x10:0x10000000 x15=0x00000001
           1898	       945	001000b0	00f66963	bltu	x12,x15,1000c2	 x12:0x00000009 x15:0x00000001  x0=0x00000000
           1900	       946	001000b4	03078793	addi	x15,x15,48	 x15:0x00000001 x15=0x00000031
           1904	       948	001000b8	c29c	c.sw	x15,0(x13)	 x13:0x00020000 x15:0x00000031 PA:0x00020000 store:0x00000031 load:0x00000000
           1906	       949	001000ba	177d	c.addi	x14,-1	 x14:0x00000005 x14=0x00000004
           1908	       950	001000bc	0512	c.slli	x10,0x4	 x10:0x10000000 x10=0x00000000
           1912	       952	001000be	f77d	c.bnez	x14,1000ac	 x14:0x00000004
           1916	       954	001000ac	01c55793	srli	x15,x10,0x1c	 x10:0x00000000 x15=0x00000000
           1918	       955	001000b0	00f66963	bltu	x12,x15,1000c2	 x12:0x00000009 x15:0x00000000  x0=0x00000000
           1920	       956	001000b4	03078793	addi	x15,x15,48	 x15:0x00000000 x15=0x00000030
           1924	       958	001000b8	c29c	c.sw	x15,0(x13)	 x13:0x00020000 x15:0x00000030 PA:0x00020000 store:0x00000030 load:0x00000000
           1926	       959	001000ba	177d	c.addi	x14,-1	 x14:0x00000004 x14=0x00000003
           1928	       960	001000bc	0512	c.slli	x10,0x4	 x10:0x00000000 x10=0x00000000
           1932	       962	001000be	f77d	c.bnez	x14,1000ac	 x14:0x00000003
           1936	       964	001000ac	01c55793	srli	x15,x10,0x1c	 x10:0x00000000 x15=0x00000000
           1938	       965	001000b0	00f66963	bltu	x12,x15,1000c2	 x12:0x00000009 x15:0x00000000  x0=0x00000000
           1940	       966	001000b4	03078793	addi	x15,x15,48	 x15:0x00000000 x15=0x00000030
           1944	       968	001000b8	c29c	c.sw	x15,0(x13)	 x13:0x00020000 x15:0x00000030 PA:0x00020000 store:0x00000030 load:0x00000000
           1946	       969	001000ba	177d	c.addi	x14,-1	 x14:0x00000003 x14=0x00000002
           1948	       970	001000bc	0512	c.slli	x10,0x4	 x10:0x00000000 x10=0x00000000
           1952	       972	001000be	f77d	c.bnez	x14,1000ac	 x14:0x00000002
           1956	       974	001000ac	01c55793	srli	x15,x10,0x1c	 x10:0x00000000 x15=0x00000000
           1958	       975	001000b0	00f66963	bltu	x12,x15,1000c2	 x12:0x00000009 x15:0x00000000  x0=0x00000000
           1960	       976	001000b4	03078793	addi	x15,x15,48	 x15:0x00000000 x15=0x00000030
           1964	       978	001000b8	c29c	c.sw	x15,0(x13)	 x13:0x00020000 x15:0x00000030 PA:0x00020000 store:0x00000030 load:0x00000000
           1966	       979	001000ba	177d	c.addi	x14,-1	 x14:0x00000002 x14=0x00000001
           1968	       980	001000bc	0512	c.slli	x10,0x4	 x10:0x00000000 x10=0x00000000
           1972	       982	001000be	f77d	c.bnez	x14,1000ac	 x14:0x00000001
           1976	       984	001000ac	01c55793	srli	x15,x10,0x1c	 x10:0x00000000 x15=0x00000000
           1978	       985	001000b0	00f66963	bltu	x12,x15,1000c2	 x12:0x00000009 x15:0x00000000  x0=0x00000000
           1980	       986	001000b4	03078793	addi	x15,x15,48	 x15:0x00000000 x15=0x00000030
           1984	       988	001000b8	c29c	c.sw	x15,0(x13)	 x13:0x00020000 x15:0x00000030 PA:0x00020000 store:0x00000030 load:0x00000000
           1986	       989	001000ba	177d	c.addi	x14,-1	 x14:0x00000001 x14=0x00000000
           1988	       990	001000bc	0512	c.slli	x10,0x4	 x10:0x00000000 x10=0x00000000
           1990	       991	001000be	f77d	c.bnez	x14,1000ac	 x14:0x00000000
           1994	       993	001000c0	8082	c.jr	x1	  x1:0x00100a84
           1996	       994	00100a84	854a	c.mv	x10,x18	  x0:0x00000000 x18:0x00100ae8 x10=0x00100ae8
           2000	       996	00100a86	e0aff0ef	jal	x1,100090	  x1=0x00100a8a
           2002	       997	00100090	00020737	lui	x14,0x20	 x14=0x00020000
           2006	       999	00100094	00054783	lbu	x15,0(x10)	 x10:0x00100ae8 x15=0x0000000a PA:0x00100ae8 store:0x00000000
           2010	      1001	00100098	e399	c.bnez	x15,10009e	 x15:0x0000000a
           2014	      1003	0010009e	0505	c.addi	x10,1	 x10:0x00100ae8 x10=0x00100ae9
           2018	      1005	001000a0	c31c	c.sw	x15,0(x14)	 x14:0x00020000 x15:0x0000000a PA:0x00020000 store:0x0000000a load:0x00000000
           2022	      1007	001000a2	bfcd	c.j	100094	
           2026	      1009	00100094	00054783	lbu	x15,0(x10)	 x10:0x00100ae9 x15=0x00000000 PA:0x00100ae9 store:0x00000000
           2028	      1010	00100098	e399	c.bnez	x15,10009e	 x15:0x00000000
           2030	      1011	0010009a	4501	c.li	x10,0	 x10=0x00000000
           2034	      1013	0010009c	8082	c.jr	x1	  x1:0x00100a8a
           2040	      1016	00100a8a	fe9410e3	bne	x8,x9,100a6a	  x8:0x00000003  x9:0x00000008  x0=0x00000000
           2044	      1018	00100a6a	0098	c.addi4spn	x14,x2,64	 x14=0x001ffff0
           2046	      1019	00100a6c	00241793	slli	x15,x8,0x2	  x8:0x00000003 x15=0x0000000c
           2048	      1020	00100a70	97ba	c.add	x15,x14	 x15:0x0000000c x14:0x001ffff0 x15=0x001ffffc
           2052	      1022	00100a72	fe07a583	lw	x11,-32(x15)	 x15:0x001ffffc x11=0x44440000 PA:0x001fffdc store:0x00000000
           2056	      1024	00100a76	fc07a503	lw	x10,-64(x15)	 x15:0x001ffffc x10=0x33330000 PA:0x001fffbc store:0x00000000
           2058	      1025	00100a7a	4641	c.li	x12,16	 x12=0x00000010
           2060	      1026	00100a7c	0405	c.addi	x8,1	  x8:0x00000003  x8=0x00000004
           2064	      1028	00100a7e	3aa9	c.jal	1003d8	  x1=0x00100a80
           2066	      1029	001003d8	ffe60693	addi	x13,x12,-2	 x12:0x00000010 x13=0x0000000e
           2068	      1030	001003dc	4879	c.li	x16,30	 x16=0x0000001e
           2070	      1031	001003de	87aa	c.mv	x15,x10	  x0:0x00000000 x10:0x33330000 x15=0x33330000
           2072	      1032	001003e0	872e	c.mv	x14,x11	  x0:0x00000000 x11:0x44440000 x14=0x44440000
           2074	      1033	001003e2	02d86263	bltu	x16,x13,100406	 x16:0x0000001e x13:0x0000000e  x0=0x00000000
           2076	      1034	001003e6	cd09	c.beqz	x10,100400	 x10:0x33330000
           2078	      1035	001003e8	cd81	c.beqz	x11,100400	 x11:0x44440000
           2080	      1036	001003ea	800006b7	lui	x13,0x80000	 x13=0x80000000
           2082	      1037	001003ee	00d50c63	beq	x10,x13,100406	 x10:0x33330000 x13:0x80000000  x0=0x00000000
           2084	      1038	001003f2	00d58a63	beq	x11,x13,100406	 x11:0x44440000 x13:0x80000000  x0=0x00000000
           2086	      1039	001003f6	00b547b3	xor	x15,x10,x11	 x10:0x33330000 x11:0x44440000 x15=0x77770000
           2088	      1040	001003fa	0007c963	blt	x15,x0,10040c	 x15:0x77770000  x0:0x00000000  x0=0x00000000
           2092	      1042	001003fe	a801	c.j	10040e	
           2094	      1043	0010040e	832a	c.mv	x6,x10	  x0:0x00000000 x10:0x33330000  x6=0x33330000
           2096	      1044	00100410	12054e63	blt	x10,x0,10054c	 x10:0x33330000  x0:0x00000000  x0=0x00000000
           2098	      1045	00100414	00b55563	bge	x10,x11,10041e	 x10:0x33330000 x11:0x44440000  x0=0x00000000
           2100	      1046	00100418	87aa	c.mv	x15,x10	  x0:0x00000000 x10:0x33330000 x15=0x33330000
           2102	      1047	0010041a	852e	c.mv	x10,x11	  x0:0x00000000 x11:0x44440000 x10=0x44440000
           2104	      1048	0010041c	85be	c.mv	x11,x15	  x0:0x00000000 x15:0x33330000 x11=0x33330000
           2106	      1049	0010041e	4789	c.li	x15,2	 x15=0x00000002
           2108	      1050	00100420	14f60563	beq	x12,x15,10056a	 x12:0x00000010 x15:0x00000002  x0=0x00000000
           2110	      1051	00100424	00151713	slli	x14,x10,0x1	 x10:0x44440000 x14=0x88880000
           2112	      1052	00100428	00251793	slli	x15,x10,0x2	 x10:0x44440000 x15=0x11100000
           2114	      1053	0010042c	12075563	bge	x14,x0,100556	 x14:0x88880000  x0:0x00000000  x0=0x00000000
           2116	      1054	00100430	4801	c.li	x16,0	 x16=0x00000000
           2120	      1056	00100432	0007d663	bge	x15,x0,10043e	 x15:0x11100000  x0:0x00000000  x0=0x00000000
           2126	      1059	0010043e	00179893	slli	x17,x15,0x1	 x15:0x11100000 x17=0x22200000
           2128	      1060	00100442	40000737	lui	x14,0x40000	 x14=0x40000000
           2130	      1061	00100446	00e8e8b3	or	x17,x17,x14	 x17:0x22200000 x14:0x40000000 x17=0x62200000
           2132	      1062	0010044a	01d7d713	srli	x14,x15,0x1d	 x15:0x11100000 x14=0x00000000
           2134	      1063	0010044e	800007b7	lui	x15,0x80000	 x15=0x80000000
           2136	      1064	00100452	fff7c793	xori	x15,x15,-1	 x15:0x80000000 x15=0x7fffffff
           2138	      1065	00100456	00159693	slli	x13,x11,0x1	 x11:0x33330000 x13=0x66660000
           2140	      1066	0010045a	00f8f8b3	and	x17,x17,x15	 x17:0x62200000 x15:0x7fffffff x17=0x62200000
           2142	      1067	0010045e	4f01	c.li	x30,0	 x30=0x00000000
           2144	      1068	00100460	00259793	slli	x15,x11,0x2	 x11:0x33330000 x15=0xcccc0000
           2148	      1070	00100464	1006df63	bge	x13,x0,100582	 x13:0x66660000  x0:0x00000000  x0=0x00000000
           2154	      1073	00100582	00180693	addi	x13,x16,1	 x16:0x00000000 x13=0x00000001
           2158	      1075	00100586	0007c663	blt	x15,x0,100592	 x15:0xcccc0000  x0:0x00000000  x0=0x00000000
           2162	      1077	00100592	0786	c.slli	x15,0x1	 x15:0xcccc0000 x15=0x99980000
           2164	      1078	00100594	8385	c.srli	x15,0x1	 x15:0x99980000 x15=0x4ccc0000
           2168	      1080	00100596	b5c5	c.j	100476	
           2170	      1081	00100476	068a	c.slli	x13,0x2	 x13:0x00000001 x13=0x00000004
           2172	      1082	00100478	01d7d513	srli	x10,x15,0x1d	 x15:0x4ccc0000 x10=0x00000002
           2174	      1083	0010047c	96ba	c.add	x13,x14	 x13:0x00000004 x14:0x00000000 x13=0x00000004
           2176	      1084	0010047e	8e89	c.sub	x13,x10	 x13:0x00000004 x10:0x00000002 x13=0x00000002
           2178	      1085	00100480	03f00513	addi	x10,x0,63	  x0:0x00000000 x10=0x0000003f
           2180	      1086	00100484	04d54463	blt	x10,x13,1004cc	 x10:0x0000003f x13:0x00000002  x0=0x00000000
           2182	      1087	00100488	400005b7	lui	x11,0x40000	 x11=0x40000000
           2184	      1088	0010048c	0786	c.slli	x15,0x1	 x15:0x4ccc0000 x15=0x99980000
           2186	      1089	0010048e	80000537	lui	x10,0x80000	 x10=0x80000000
           2188	      1090	00100492	8fcd	c.or	x15,x11	 x15:0x99980000 x11:0x40000000 x15=0xd9980000
           2190	      1091	00100494	fff54513	xori	x10,x10,-1	 x10:0x80000000 x10=0x7fffffff
           2192	      1092	00100498	fe068593	addi	x11,x13,-32	 x13:0x00000002 x11=0xffffffe2
           2194	      1093	0010049c	8fe9	c.and	x15,x10	 x15:0xd9980000 x10:0x7fffffff x15=0x59980000
           2198	      1095	0010049e	1205ce63	blt	x11,x0,1005da	 x11:0xffffffe2  x0:0x00000000  x0=0x00000000
           2202	      1097	001005da	457d	c.li	x10,31	 x10=0x0000001f
           2204	      1098	001005dc	00179593	slli	x11,x15,0x1	 x15:0x59980000 x11=0xb3300000
           2206	      1099	001005e0	8d15	c.sub	x10,x13	 x10:0x0000001f x13:0x00000002 x10=0x0000001d
           2208	      1100	001005e2	00a595b3	sll	x11,x11,x10	 x11:0xb3300000 x10:0x0000001d x11=0x00000000
           2210	      1101	001005e6	00d7d7b3	srl	x15,x15,x13	 x15:0x59980000 x13:0x00000002 x15=0x16660000
           2214	      1103	001005ea	bd7d	c.j	1004a8	
           2216	      1104	001004a8	97c6	c.add	x15,x17	 x15:0x16660000 x17:0x62200000 x15=0x78860000
           2218	      1105	001004aa	88be	c.mv	x17,x15	  x0:0x00000000 x15:0x78860000 x17=0x78860000
           2220	      1106	001004ac	8f2e	c.mv	x30,x11	  x0:0x00000000 x11:0x00000000 x30=0x00000000
           2224	      1108	001004ae	0007df63	bge	x15,x0,1004cc	 x15:0x78860000  x0:0x00000000  x0=0x00000000
           2228	      1110	001004cc	fff60e13	addi	x28,x12,-1	 x12:0x00000010 x28=0x0000000f
           2230	      1111	001004d0	0c084463	blt	x16,x0,100598	 x16:0x00000000  x0:0x00000000  x0=0x00000000
           2232	      1112	001004d4	00180e93	addi	x29,x16,1	 x16:0x00000000 x29=0x00000001
           2234	      1113	001004d8	0fced163	bge	x29,x28,1005ba	 x29:0x00000001 x28:0x0000000f  x0=0x00000000
           2236	      1114	001004dc	800006b7	lui	x13,0x80000	 x13=0x80000000
           2238	      1115	001004e0	fff6c513	xori	x10,x13,-1	 x13:0x80000000 x10=0x7fffffff
           2240	      1116	001004e4	41d557b3	sra	x15,x10,x29	 x10:0x7fffffff x29:0x00000001 x15=0x3fffffff
           2242	      1117	001004e8	8d1d	c.sub	x10,x15	 x10:0x7fffffff x15:0x3fffffff x10=0x40000000
           2244	      1118	001004ea	14cedd63	bge	x29,x12,100644	 x29:0x00000001 x12:0x00000010  x0=0x00000000
           2246	      1119	001004ee	088a	c.slli	x17,0x2	 x17:0x78860000 x17=0xe2180000
           2248	      1120	001004f0	fe380593	addi	x11,x16,-29	 x16:0x00000000 x11=0xffffffe3
           2250	      1121	001004f4	0028d893	srli	x17,x17,0x2	 x17:0xe2180000 x17=0x38860000
           2252	      1122	001004f8	00380793	addi	x15,x16,3	 x16:0x00000000 x15=0x00000003
           2256	      1124	001004fc	1c05c063	blt	x11,x0,1006bc	 x11:0xffffffe3  x0:0x00000000  x0=0x00000000
           2260	      1126	001006bc	45fd	c.li	x11,31	 x11=0x0000001f
           2262	      1127	001006be	8d9d	c.sub	x11,x15	 x11:0x0000001f x15:0x00000003 x11=0x0000001c
           2264	      1128	001006c0	00189693	slli	x13,x17,0x1	 x17:0x38860000 x13=0x710c0000
           2266	      1129	001006c4	00b696b3	sll	x13,x13,x11	 x13:0x710c0000 x11:0x0000001c x13=0x00000000
           2268	      1130	001006c8	00ff55b3	srl	x11,x30,x15	 x30:0x00000000 x15:0x00000003 x11=0x00000000
           2270	      1131	001006cc	8dd5	c.or	x11,x13	 x11:0x00000000 x13:0x00000000 x11=0x00000000
           2272	      1132	001006ce	00f8d6b3	srl	x13,x17,x15	 x17:0x38860000 x15:0x00000003 x13=0x0710c000
           2276	      1134	001006d2	bd15	c.j	100506	
           2278	      1135	00100506	47f1	c.li	x15,28	 x15=0x0000001c
           2280	      1136	00100508	41d787b3	sub	x15,x15,x29	 x15:0x0000001c x29:0x00000001 x15=0x0000001b
           2282	      1137	0010050c	ffd60813	addi	x16,x12,-3	 x12:0x00000010 x16=0x0000000d
           2284	      1138	00100510	0d0ede63	bge	x29,x16,1005ec	 x29:0x00000001 x16:0x0000000d  x0=0x00000000
           2286	      1139	00100514	80000837	lui	x16,0x80000	 x16=0x80000000
           2288	      1140	00100518	41c85e33	sra	x28,x16,x28	 x16:0x80000000 x28:0x0000000f x28=0xffff0000
           2290	      1141	0010051c	02000893	addi	x17,x0,32	  x0:0x00000000 x17=0x00000020
           2292	      1142	00100520	00de7e33	and	x28,x28,x13	 x28:0xffff0000 x13:0x0710c000 x28=0x07100000
           2294	      1143	00100524	40c888b3	sub	x17,x17,x12	 x17:0x00000020 x12:0x00000010 x17=0x00000010
           2296	      1144	00100528	00f717b3	sll	x15,x14,x15	 x14:0x00000000 x15:0x0000001b x15=0x00000000
           2298	      1145	0010052c	9572	c.add	x10,x28	 x10:0x40000000 x28:0x07100000 x10=0x47100000
           2300	      1146	0010052e	fe088713	addi	x14,x17,-32	 x17:0x00000010 x14=0xfffffff0
           2302	      1147	00100532	953e	c.add	x10,x15	 x10:0x47100000 x15:0x00000000 x10=0x47100000
           2306	      1149	00100534	14074b63	blt	x14,x0,10068a	 x14:0xfffffff0  x0:0x00000000  x0=0x00000000
           2310	      1151	0010068a	47fd	c.li	x15,31	 x15=0x0000001f
           2312	      1152	0010068c	411787b3	sub	x15,x15,x17	 x15:0x0000001f x17:0x00000010 x15=0x0000000f
           2314	      1153	00100690	40000737	lui	x14,0x40000	 x14=0x40000000
           2316	      1154	00100694	00f75733	srl	x14,x14,x15	 x14:0x40000000 x15:0x0000000f x14=0x00008000
           2318	      1155	00100698	011817b3	sll	x15,x16,x17	 x16:0x80000000 x17:0x00000010 x15=0x00000000
           2322	      1157	0010069c	b54d	c.j	10053e	
           2324	      1158	0010053e	8fed	c.and	x15,x11	 x15:0x00000000 x11:0x00000000 x15=0x00000000
           2326	      1159	00100540	8f75	c.and	x14,x13	 x14:0x00008000 x13:0x0710c000 x14=0x00008000
           2328	      1160	00100542	8fd9	c.or	x15,x14	 x15:0x00000000 x14:0x00008000 x15=0x00008000
           2332	      1162	00100544	e7f1	c.bnez	x15,100610	 x15:0x00008000
           2336	      1164	00100610	fe160893	addi	x17,x12,-31	 x12:0x00000010 x17=0xfffffff1
           2338	      1165	00100614	02000793	addi	x15,x0,32	  x0:0x00000000 x15=0x00000020
           2340	      1166	00100618	40c78833	sub	x16,x15,x12	 x15:0x00000020 x12:0x00000010 x16=0x00000010
           2342	      1167	0010061c	577d	c.li	x14,-1	 x14=0xffffffff
           2344	      1168	0010061e	0605	c.addi	x12,1	 x12:0x00000010 x12=0x00000011
           2348	      1170	00100620	0208c763	blt	x17,x0,10064e	 x17:0xfffffff1  x0:0x00000000  x0=0x00000000
           2352	      1172	0010064e	48fd	c.li	x17,31	 x17=0x0000001f
           2354	      1173	00100650	40c887b3	sub	x15,x17,x12	 x17:0x0000001f x12:0x00000011 x15=0x0000000e
           2356	      1174	00100654	58f9	c.li	x17,-2	 x17=0xfffffffe
           2358	      1175	00100656	00f898b3	sll	x17,x17,x15	 x17:0xfffffffe x15:0x0000000e x17=0xffff8000
           2360	      1176	0010065a	00c757b3	srl	x15,x14,x12	 x14:0xffffffff x12:0x00000011 x15=0x00007fff
           2362	      1177	0010065e	00f8e7b3	or	x15,x17,x15	 x17:0xffff8000 x15:0x00007fff x15=0xffffffff
           2364	      1178	00100662	00c75633	srl	x12,x14,x12	 x14:0xffffffff x12:0x00000011 x12=0x00007fff
           2368	      1180	00100666	b7d1	c.j	10062a	
           2370	      1181	0010062a	8fed	c.and	x15,x11	 x15:0xffffffff x11:0x00000000 x15=0x00000000
           2372	      1182	0010062c	8ef1	c.and	x13,x12	 x13:0x0710c000 x12:0x00007fff x13=0x00004000
           2374	      1183	0010062e	01055733	srl	x14,x10,x16	 x10:0x47100000 x16:0x00000010 x14=0x00004710
           2376	      1184	00100632	8fd5	c.or	x15,x13	 x15:0x00000000 x13:0x00004000 x15=0x00004000
           2378	      1185	00100634	00f037b3	sltu	x15,x0,x15	  x0:0x00000000 x15:0x00004000 x15=0x00000001
           2380	      1186	00100638	8b05	c.andi	x14,1	 x14:0x00004710 x14=0x00000000
           2382	      1187	0010063a	8fd9	c.or	x15,x14	 x15:0x00000001 x14:0x00000000 x15=0x00000001
           2384	      1188	0010063c	010797b3	sll	x15,x15,x16	 x15:0x00000001 x16:0x00000010 x15=0x00010000
           2386	      1189	00100640	953e	c.add	x10,x15	 x10:0x47100000 x15:0x00010000 x10=0x47110000
           2390	      1191	00100642	b711	c.j	100546	
           2394	      1193	00100546	02034b63	blt	x6,x0,10057c	  x6:0x33330000  x0:0x00000000  x0=0x00000000
           2398	      1195	0010054a	8082	c.jr	x1	  x1:0x00100a80
           2402	      1197	00100a80	e24ff0ef	jal	x1,1000a4	  x1=0x00100a84
           2404	      1198	001000a4	4721	c.li	x14,8	 x14=0x00000008
           2406	      1199	001000a6	4625	c.li	x12,9	 x12=0x00000009
           2408	      1200	001000a8	000206b7	lui	x13,0x20	 x13=0x00020000
           2410	      1201	001000ac	01c55793	srli	x15,x10,0x1c	 x10:0x47110000 x15=0x00000004
           2412	      1202	001000b0	00f66963	bltu	x12,x15,1000c2	 x12:0x00000009 x15:0x00000004  x0=0x00000000
           2414	      1203	001000b4	03078793	addi	x15,x15,48	 x15:0x00000004 x15=0x00000034
           2418	      1205	001000b8	c29c	c.sw	x15,0(x13)	 x13:0x00020000 x15:0x00000034 PA:0x00020000 store:0x00000034 load:0x00000000
           2420	      1206	001000ba	177d	c.addi	x14,-1	 x14:0x00000008 x14=0x00000007
           2422	      1207	001000bc	0512	c.slli	x10,0x4	 x10:0x47110000 x10=0x71100000
           2426	      1209	001000be	f77d	c.bnez	x14,1000ac	 x14:0x00000007
           2430	      1211	001000ac	01c55793	srli	x15,x10,0x1c	 x10:0x71100000 x15=0x00000007
           2432	      1212	001000b0	00f66963	bltu	x12,x15,1000c2	 x12:0x00000009 x15:0x00000007  x0=0x00000000
           2434	      1213	001000b4	03078793	addi	x15,x15,48	 x15:0x00000007 x15=0x00000037
           2438	      1215	001000b8	c29c	c.sw	x15,0(x13)	 x13:0x00020000 x15:0x00000037 PA:0x00020000 store:0x00000037 load:0x00000000
           2440	      1216	001000ba	177d	c.addi	x14,-1	 x14:0x00000007 x14=0x00000006
           2442	      1217	001000bc	0512	c.slli	x10,0x4	 x10:0x71100000 x10=0x11000000
           2446	      1219	001000be	f77d	c.bnez	x14,1000ac	 x14:0x00000006
           2450	      1221	001000ac	01c55793	srli	x15,x10,0x1c	 x10:0x11000000 x15=0x00000001
           2452	      1222	001000b0	00f66963	bltu	x12,x15,1000c2	 x12:0x00000009 x15:0x00000001  x0=0x00000000
           2454	      1223	001000b4	03078793	addi	x15,x15,48	 x15:0x00000001 x15=0x00000031
           2458	      1225	001000b8	c29c	c.sw	x15,0(x13)	 x13:0x00020000 x15:0x00000031 PA:0x00020000 store:0x00000031 load:0x00000000
           2460	      1226	001000ba	177d	c.addi	x14,-1	 x14:0x00000006 x14=0x00000005
           2462	      1227	001000bc	0512	c.slli	x10,0x4	 x10:0x11000000 x10=0x10000000
           2466	      1229	001000be	f77d	c.bnez	x14,1000ac	 x14:0x00000005
           2470	      1231	001000ac	01c55793	srli	x15,x10,0x1c	 x10:0x10000000 x15=0x00000001
           2472	      1232	001000b0	00f66963	bltu	x12,x15,1000c2	 x12:0x00000009 x15:0x00000001  x0=0x00000000
           2474	      1233	001000b4	03078793	addi	x15,x15,48	 x15:0x00000001 x15=0x00000031
           2478	      1235	001000b8	c29c	c.sw	x15,0(x13)	 x13:0x00020000 x15:0x00000031 PA:0x00020000 store:0x00000031 load:0x00000000
           2480	      1236	001000ba	177d	c.addi	x14,-1	 x14:0x00000005 x14=0x00000004
           2482	      1237	001000bc	0512	c.slli	x10,0x4	 x10:0x10000000 x10=0x00000000
           2486	      1239	001000be	f77d	c.bnez	x14,1000ac	 x14:0x00000004
           2490	      1241	001000ac	01c55793	srli	x15,x10,0x1c	 x10:0x00000000 x15=0x00000000
           2492	      1242	001000b0	00f66963	bltu	x12,x15,1000c2	 x12:0x00000009 x15:0x00000000  x0=0x00000000
           2494	      1243	001000b4	03078793	addi	x15,x15,48	 x15:0x00000000 x15=0x00000030
           2498	      1245	001000b8	c29c	c.sw	x15,0(x13)	 x13:0x00020000 x15:0x00000030 PA:0x00020000 store:0x00000030 load:0x00000000
           2500	      1246	001000ba	177d	c.addi	x14,-1	 x14:0x00000004 x14=0x00000003
           2502	      1247	001000bc	0512	c.slli	x10,0x4	 x10:0x00000000 x10=0x00000000
           2506	      1249	001000be	f77d	c.bnez	x14,1000ac	 x14:0x00000003
           2510	      1251	001000ac	01c55793	srli	x15,x10,0x1c	 x10:0x00000000 x15=0x00000000
           2512	      1252	001000b0	00f66963	bltu	x12,x15,1000c2	 x12:0x00000009 x15:0x00000000  x0=0x00000000
           2514	      1253	001000b4	03078793	addi	x15,x15,48	 x15:0x00000000 x15=0x00000030
           2518	      1255	001000b8	c29c	c.sw	x15,0(x13)	 x13:0x00020000 x15:0x00000030 PA:0x00020000 store:0x00000030 load:0x00000000
           2520	      1256	001000ba	177d	c.addi	x14,-1	 x14:0x00000003 x14=0x00000002
           2522	      1257	001000bc	0512	c.slli	x10,0x4	 x10:0x00000000 x10=0x00000000
           2526	      1259	001000be	f77d	c.bnez	x14,1000ac	 x14:0x00000002
           2530	      1261	001000ac	01c55793	srli	x15,x10,0x1c	 x10:0x00000000 x15=0x00000000
           2532	      1262	001000b0	00f66963	bltu	x12,x15,1000c2	 x12:0x00000009 x15:0x00000000  x0=0x00000000
           2534	      1263	001000b4	03078793	addi	x15,x15,48	 x15:0x00000000 x15=0x00000030
           2538	      1265	001000b8	c29c	c.sw	x15,0(x13)	 x13:0x00020000 x15:0x00000030 PA:0x00020000 store:0x00000030 load:0x00000000
           2540	      1266	001000ba	177d	c.addi	x14,-1	 x14:0x00000002 x14=0x00000001
           2542	      1267	001000bc	0512	c.slli	x10,0x4	 x10:0x00000000 x10=0x00000000
           2546	      1269	001000be	f77d	c.bnez	x14,1000ac	 x14:0x00000001
           2550	      1271	001000ac	01c55793	srli	x15,x10,0x1c	 x10:0x00000000 x15=0x00000000
           2552	      1272	001000b0	00f66963	bltu	x12,x15,1000c2	 x12:0x00000009 x15:0x00000000  x0=0x00000000
           2554	      1273	001000b4	03078793	addi	x15,x15,48	 x15:0x00000000 x15=0x00000030
           2558	      1275	001000b8	c29c	c.sw	x15,0(x13)	 x13:0x00020000 x15:0x00000030 PA:0x00020000 store:0x00000030 load:0x00000000
           2560	      1276	001000ba	177d	c.addi	x14,-1	 x14:0x00000001 x14=0x00000000
           2562	      1277	001000bc	0512	c.slli	x10,0x4	 x10:0x00000000 x10=0x00000000
           2564	      1278	001000be	f77d	c.bnez	x14,1000ac	 x14:0x00000000
           2568	      1280	001000c0	8082	c.jr	x1	  x1:0x00100a84
           2570	      1281	00100a84	854a	c.mv	x10,x18	  x0:0x00000000 x18:0x00100ae8 x10=0x00100ae8
           2574	      1283	00100a86	e0aff0ef	jal	x1,100090	  x1=0x00100a8a
           2576	      1284	00100090	00020737	lui	x14,0x20	 x14=0x00020000
           2580	      1286	00100094	00054783	lbu	x15,0(x10)	 x10:0x00100ae8 x15=0x0000000a PA:0x00100ae8 store:0x00000000
           2584	      1288	00100098	e399	c.bnez	x15,10009e	 x15:0x0000000a
           2588	      1290	0010009e	0505	c.addi	x10,1	 x10:0x00100ae8 x10=0x00100ae9
           2592	      1292	001000a0	c31c	c.sw	x15,0(x14)	 x14:0x00020000 x15:0x0000000a PA:0x00020000 store:0x0000000a load:0x00000000
           2596	      1294	001000a2	bfcd	c.j	100094	
           2600	      1296	00100094	00054783	lbu	x15,0(x10)	 x10:0x00100ae9 x15=0x00000000 PA:0x00100ae9 store:0x00000000
           2602	      1297	00100098	e399	c.bnez	x15,10009e	 x15:0x00000000
           2604	      1298	0010009a	4501	c.li	x10,0	 x10=0x00000000
           2608	      1300	0010009c	8082	c.jr	x1	  x1:0x00100a8a
           2614	      1303	00100a8a	fe9410e3	bne	x8,x9,100a6a	  x8:0x00000004  x9:0x00000008  x0=0x00000000
           2618	      1305	00100a6a	0098	c.addi4spn	x14,x2,64	 x14=0x001ffff0
           2620	      1306	00100a6c	00241793	slli	x15,x8,0x2	  x8:0x00000004 x15=0x00000010
           2622	      1307	00100a70	97ba	c.add	x15,x14	 x15:0x00000010 x14:0x001ffff0 x15=0x00200000
           2626	      1309	00100a72	fe07a583	lw	x11,-32(x15)	 x15:0x00200000 x11=0x44440000 PA:0x001fffe0 store:0x00000000
           2630	      1311	00100a76	fc07a503	lw	x10,-64(x15)	 x15:0x00200000 x10=0x33330000 PA:0x001fffc0 store:0x00000000
           2632	      1312	00100a7a	4641	c.li	x12,16	 x12=0x00000010
           2634	      1313	00100a7c	0405	c.addi	x8,1	  x8:0x00000004  x8=0x00000005
           2638	      1315	00100a7e	3aa9	c.jal	1003d8	  x1=0x00100a80
           2640	      1316	001003d8	ffe60693	addi	x13,x12,-2	 x12:0x00000010 x13=0x0000000e
           2642	      1317	001003dc	4879	c.li	x16,30	 x16=0x0000001e
           2644	      1318	001003de	87aa	c.mv	x15,x10	  x0:0x00000000 x10:0x33330000 x15=0x33330000
           2646	      1319	001003e0	872e	c.mv	x14,x11	  x0:0x00000000 x11:0x44440000 x14=0x44440000
           2648	      1320	001003e2	02d86263	bltu	x16,x13,100406	 x16:0x0000001e x13:0x0000000e  x0=0x00000000
           2650	      1321	001003e6	cd09	c.beqz	x10,100400	 x10:0x33330000
           2652	      1322	001003e8	cd81	c.beqz	x11,100400	 x11:0x44440000
           2654	      1323	001003ea	800006b7	lui	x13,0x80000	 x13=0x80000000
           2656	      1324	001003ee	00d50c63	beq	x10,x13,100406	 x10:0x33330000 x13:0x80000000  x0=0x00000000
           2658	      1325	001003f2	00d58a63	beq	x11,x13,100406	 x11:0x44440000 x13:0x80000000  x0=0x00000000
           2660	      1326	001003f6	00b547b3	xor	x15,x10,x11	 x10:0x33330000 x11:0x44440000 x15=0x77770000
           2662	      1327	001003fa	0007c963	blt	x15,x0,10040c	 x15:0x77770000  x0:0x00000000  x0=0x00000000
           2666	      1329	001003fe	a801	c.j	10040e	
           2668	      1330	0010040e	832a	c.mv	x6,x10	  x0:0x00000000 x10:0x33330000  x6=0x33330000
           2670	      1331	00100410	12054e63	blt	x10,x0,10054c	 x10:0x33330000  x0:0x00000000  x0=0x00000000
           2672	      1332	00100414	00b55563	bge	x10,x11,10041e	 x10:0x33330000 x11:0x44440000  x0=0x00000000
           2674	      1333	00100418	87aa	c.mv	x15,x10	  x0:0x00000000 x10:0x33330000 x15=0x33330000
           2676	      1334	0010041a	852e	c.mv	x10,x11	  x0:0x00000000 x11:0x44440000 x10=0x44440000
           2678	      1335	0010041c	85be	c.mv	x11,x15	  x0:0x00000000 x15:0x33330000 x11=0x33330000
           2680	      1336	0010041e	4789	c.li	x15,2	 x15=0x00000002
           2682	      1337	00100420	14f60563	beq	x12,x15,10056a	 x12:0x00000010 x15:0x00000002  x0=0x00000000
           2684	      1338	00100424	00151713	slli	x14,x10,0x1	 x10:0x44440000 x14=0x88880000
           2686	      1339	00100428	00251793	slli	x15,x10,0x2	 x10:0x44440000 x15=0x11100000
           2688	      1340	0010042c	12075563	bge	x14,x0,100556	 x14:0x88880000  x0:0x00000000  x0=0x00000000
           2690	      1341	00100430	4801	c.li	x16,0	 x16=0x00000000
           2694	      1343	00100432	0007d663	bge	x15,x0,10043e	 x15:0x11100000  x0:0x00000000  x0=0x00000000
           2700	      1346	0010043e	00179893	slli	x17,x15,0x1	 x15:0x11100000 x17=0x22200000
           2702	      1347	00100442	40000737	lui	x14,0x40000	 x14=0x40000000
           2704	      1348	00100446	00e8e8b3	or	x17,x17,x14	 x17:0x22200000 x14:0x40000000 x17=0x62200000
           2706	      1349	0010044a	01d7d713	srli	x14,x15,0x1d	 x15:0x11100000 x14=0x00000000
           2708	      1350	0010044e	800007b7	lui	x15,0x80000	 x15=0x80000000
           2710	      1351	00100452	fff7c793	xori	x15,x15,-1	 x15:0x80000000 x15=0x7fffffff
           2712	      1352	00100456	00159693	slli	x13,x11,0x1	 x11:0x33330000 x13=0x66660000
           2714	      1353	0010045a	00f8f8b3	and	x17,x17,x15	 x17:0x62200000 x15:0x7fffffff x17=0x62200000
           2716	      1354	0010045e	4f01	c.li	x30,0	 x30=0x00000000
           2718	      1355	00100460	00259793	slli	x15,x11,0x2	 x11:0x33330000 x15=0xcccc0000
           2722	      1357	00100464	1006df63	bge	x13,x0,100582	 x13:0x66660000  x0:0x00000000  x0=0x00000000
           2728	      1360	00100582	00180693	addi	x13,x16,1	 x16:0x00000000 x13=0x00000001
           2732	      1362	00100586	0007c663	blt	x15,x0,100592	 x15:0xcccc0000  x0:0x00000000  x0=0x00000000
           2736	      1364	00100592	0786	c.slli	x15,0x1	 x15:0xcccc0000 x15=0x99980000
           2738	      1365	00100594	8385	c.srli	x15,0x1	 x15:0x99980000 x15=0x4ccc0000
           2742	      1367	00100596	b5c5	c.j	100476	
           2744	      1368	00100476	068a	c.slli	x13,0x2	 x13:0x00000001 x13=0x00000004
           2746	      1369	00100478	01d7d513	srli	x10,x15,0x1d	 x15:0x4ccc0000 x10=0x00000002
           2748	      1370	0010047c	96ba	c.add	x13,x14	 x13:0x00000004 x14:0x00000000 x13=0x00000004
           2750	      1371	0010047e	8e89	c.sub	x13,x10	 x13:0x00000004 x10:0x00000002 x13=0x00000002
           2752	      1372	00100480	03f00513	addi	x10,x0,63	  x0:0x00000000 x10=0x0000003f
           2754	      1373	00100484	04d54463	blt	x10,x13,1004cc	 x10:0x0000003f x13:0x00000002  x0=0x00000000
           2756	      1374	00100488	400005b7	lui	x11,0x40000	 x11=0x40000000
           2758	      1375	0010048c	0786	c.slli	x15,0x1	 x15:0x4ccc0000 x15=0x99980000
           2760	      1376	0010048e	80000537	lui	x10,0x80000	 x10=0x80000000
           2762	      1377	00100492	8fcd	c.or	x15,x11	 x15:0x99980000 x11:0x40000000 x15=0xd9980000
           2764	      1378	00100494	fff54513	xori	x10,x10,-1	 x10:0x80000000 x10=0x7fffffff
           2766	      1379	00100498	fe068593	addi	x11,x13,-32	 x13:0x00000002 x11=0xffffffe2
           2768	      1380	0010049c	8fe9	c.and	x15,x10	 x15:0xd9980000 x10:0x7fffffff x15=0x59980000
           2772	      1382	0010049e	1205ce63	blt	x11,x0,1005da	 x11:0xffffffe2  x0:0x00000000  x0=0x00000000
           2776	      1384	001005da	457d	c.li	x10,31	 x10=0x0000001f
           2778	      1385	001005dc	00179593	slli	x11,x15,0x1	 x15:0x59980000 x11=0xb3300000
           2780	      1386	001005e0	8d15	c.sub	x10,x13	 x10:0x0000001f x13:0x00000002 x10=0x0000001d
           2782	      1387	001005e2	00a595b3	sll	x11,x11,x10	 x11:0xb3300000 x10:0x0000001d x11=0x00000000
           2784	      1388	001005e6	00d7d7b3	srl	x15,x15,x13	 x15:0x59980000 x13:0x00000002 x15=0x16660000
           2788	      1390	001005ea	bd7d	c.j	1004a8	
           2790	      1391	001004a8	97c6	c.add	x15,x17	 x15:0x16660000 x17:0x62200000 x15=0x78860000
           2792	      1392	001004aa	88be	c.mv	x17,x15	  x0:0x00000000 x15:0x78860000 x17=0x78860000
           2794	      1393	001004ac	8f2e	c.mv	x30,x11	  x0:0x00000000 x11:0x00000000 x30=0x00000000
           2798	      1395	001004ae	0007df63	bge	x15,x0,1004cc	 x15:0x78860000  x0:0x00000000  x0=0x00000000
           2802	      1397	001004cc	fff60e13	addi	x28,x12,-1	 x12:0x00000010 x28=0x0000000f
           2804	      1398	001004d0	0c084463	blt	x16,x0,100598	 x16:0x00000000  x0:0x00000000  x0=0x00000000
           2806	      1399	001004d4	00180e93	addi	x29,x16,1	 x16:0x00000000 x29=0x00000001
           2808	      1400	001004d8	0fced163	bge	x29,x28,1005ba	 x29:0x00000001 x28:0x0000000f  x0=0x00000000
           2810	      1401	001004dc	800006b7	lui	x13,0x80000	 x13=0x80000000
           2812	      1402	001004e0	fff6c513	xori	x10,x13,-1	 x13:0x80000000 x10=0x7fffffff
           2814	      1403	001004e4	41d557b3	sra	x15,x10,x29	 x10:0x7fffffff x29:0x00000001 x15=0x3fffffff
           2816	      1404	001004e8	8d1d	c.sub	x10,x15	 x10:0x7fffffff x15:0x3fffffff x10=0x40000000
           2818	      1405	001004ea	14cedd63	bge	x29,x12,100644	 x29:0x00000001 x12:0x00000010  x0=0x00000000
           2820	      1406	001004ee	088a	c.slli	x17,0x2	 x17:0x78860000 x17=0xe2180000
           2822	      1407	001004f0	fe380593	addi	x11,x16,-29	 x16:0x00000000 x11=0xffffffe3
           2824	      1408	001004f4	0028d893	srli	x17,x17,0x2	 x17:0xe2180000 x17=0x38860000
           2826	      1409	001004f8	00380793	addi	x15,x16,3	 x16:0x00000000 x15=0x00000003
           2830	      1411	001004fc	1c05c063	blt	x11,x0,1006bc	 x11:0xffffffe3  x0:0x00000000  x0=0x00000000
           2834	      1413	001006bc	45fd	c.li	x11,31	 x11=0x0000001f
           2836	      1414	001006be	8d9d	c.sub	x11,x15	 x11:0x0000001f x15:0x00000003 x11=0x0000001c
           2838	      1415	001006c0	00189693	slli	x13,x17,0x1	 x17:0x38860000 x13=0x710c0000
           2840	      1416	001006c4	00b696b3	sll	x13,x13,x11	 x13:0x710c0000 x11:0x0000001c x13=0x00000000
           2842	      1417	001006c8	00ff55b3	srl	x11,x30,x15	 x30:0x00000000 x15:0x00000003 x11=0x00000000
           2844	      1418	001006cc	8dd5	c.or	x11,x13	 x11:0x00000000 x13:0x00000000 x11=0x00000000
           2846	      1419	001006ce	00f8d6b3	srl	x13,x17,x15	 x17:0x38860000 x15:0x00000003 x13=0x0710c000
           2850	      1421	001006d2	bd15	c.j	100506	
           2852	      1422	00100506	47f1	c.li	x15,28	 x15=0x0000001c
           2854	      1423	00100508	41d787b3	sub	x15,x15,x29	 x15:0x0000001c x29:0x00000001 x15=0x0000001b
           2856	      1424	0010050c	ffd60813	addi	x16,x12,-3	 x12:0x00000010 x16=0x0000000d
           2858	      1425	00100510	0d0ede63	bge	x29,x16,1005ec	 x29:0x00000001 x16:0x0000000d  x0=0x00000000
           2860	      1426	00100514	80000837	lui	x16,0x80000	 x16=0x80000000
           2862	      1427	00100518	41c85e33	sra	x28,x16,x28	 x16:0x80000000 x28:0x0000000f x28=0xffff0000
           2864	      1428	0010051c	02000893	addi	x17,x0,32	  x0:0x00000000 x17=0x00000020
           2866	      1429	00100520	00de7e33	and	x28,x28,x13	 x28:0xffff0000 x13:0x0710c000 x28=0x07100000
           2868	      1430	00100524	40c888b3	sub	x17,x17,x12	 x17:0x00000020 x12:0x00000010 x17=0x00000010
           2870	      1431	00100528	00f717b3	sll	x15,x14,x15	 x14:0x00000000 x15:0x0000001b x15=0x00000000
           2872	      1432	0010052c	9572	c.add	x10,x28	 x10:0x40000000 x28:0x07100000 x10=0x47100000
           2874	      1433	0010052e	fe088713	addi	x14,x17,-32	 x17:0x00000010 x14=0xfffffff0
           2876	      1434	00100532	953e	c.add	x10,x15	 x10:0x47100000 x15:0x00000000 x10=0x47100000
           2880	      1436	00100534	14074b63	blt	x14,x0,10068a	 x14:0xfffffff0  x0:0x00000000  x0=0x00000000
           2884	      1438	0010068a	47fd	c.li	x15,31	 x15=0x0000001f
           2886	      1439	0010068c	411787b3	sub	x15,x15,x17	 x15:0x0000001f x17:0x00000010 x15=0x0000000f
           2888	      1440	00100690	40000737	lui	x14,0x40000	 x14=0x40000000
           2890	      1441	00100694	00f75733	srl	x14,x14,x15	 x14:0x40000000 x15:0x0000000f x14=0x00008000
           2892	      1442	00100698	011817b3	sll	x15,x16,x17	 x16:0x80000000 x17:0x00000010 x15=0x00000000
           2896	      1444	0010069c	b54d	c.j	10053e	
           2898	      1445	0010053e	8fed	c.and	x15,x11	 x15:0x00000000 x11:0x00000000 x15=0x00000000
           2900	      1446	00100540	8f75	c.and	x14,x13	 x14:0x00008000 x13:0x0710c000 x14=0x00008000
           2902	      1447	00100542	8fd9	c.or	x15,x14	 x15:0x00000000 x14:0x00008000 x15=0x00008000
           2906	      1449	00100544	e7f1	c.bnez	x15,100610	 x15:0x00008000
           2910	      1451	00100610	fe160893	addi	x17,x12,-31	 x12:0x00000010 x17=0xfffffff1
           2912	      1452	00100614	02000793	addi	x15,x0,32	  x0:0x00000000 x15=0x00000020
           2914	      1453	00100618	40c78833	sub	x16,x15,x12	 x15:0x00000020 x12:0x00000010 x16=0x00000010
           2916	      1454	0010061c	577d	c.li	x14,-1	 x14=0xffffffff
           2918	      1455	0010061e	0605	c.addi	x12,1	 x12:0x00000010 x12=0x00000011
           2922	      1457	00100620	0208c763	blt	x17,x0,10064e	 x17:0xfffffff1  x0:0x00000000  x0=0x00000000
           2926	      1459	0010064e	48fd	c.li	x17,31	 x17=0x0000001f
           2928	      1460	00100650	40c887b3	sub	x15,x17,x12	 x17:0x0000001f x12:0x00000011 x15=0x0000000e
           2930	      1461	00100654	58f9	c.li	x17,-2	 x17=0xfffffffe
           2932	      1462	00100656	00f898b3	sll	x17,x17,x15	 x17:0xfffffffe x15:0x0000000e x17=0xffff8000
           2934	      1463	0010065a	00c757b3	srl	x15,x14,x12	 x14:0xffffffff x12:0x00000011 x15=0x00007fff
           2936	      1464	0010065e	00f8e7b3	or	x15,x17,x15	 x17:0xffff8000 x15:0x00007fff x15=0xffffffff
           2938	      1465	00100662	00c75633	srl	x12,x14,x12	 x14:0xffffffff x12:0x00000011 x12=0x00007fff
           2942	      1467	00100666	b7d1	c.j	10062a	
           2944	      1468	0010062a	8fed	c.and	x15,x11	 x15:0xffffffff x11:0x00000000 x15=0x00000000
           2946	      1469	0010062c	8ef1	c.and	x13,x12	 x13:0x0710c000 x12:0x00007fff x13=0x00004000
           2948	      1470	0010062e	01055733	srl	x14,x10,x16	 x10:0x47100000 x16:0x00000010 x14=0x00004710
           2950	      1471	00100632	8fd5	c.or	x15,x13	 x15:0x00000000 x13:0x00004000 x15=0x00004000
           2952	      1472	00100634	00f037b3	sltu	x15,x0,x15	  x0:0x00000000 x15:0x00004000 x15=0x00000001
           2954	      1473	00100638	8b05	c.andi	x14,1	 x14:0x00004710 x14=0x00000000
           2956	      1474	0010063a	8fd9	c.or	x15,x14	 x15:0x00000001 x14:0x00000000 x15=0x00000001
           2958	      1475	0010063c	010797b3	sll	x15,x15,x16	 x15:0x00000001 x16:0x00000010 x15=0x00010000
           2960	      1476	00100640	953e	c.add	x10,x15	 x10:0x47100000 x15:0x00010000 x10=0x47110000
           2964	      1478	00100642	b711	c.j	100546	
           2968	      1480	00100546	02034b63	blt	x6,x0,10057c	  x6:0x33330000  x0:0x00000000  x0=0x00000000
           2972	      1482	0010054a	8082	c.jr	x1	  x1:0x00100a80
           2976	      1484	00100a80	e24ff0ef	jal	x1,1000a4	  x1=0x00100a84
           2978	      1485	001000a4	4721	c.li	x14,8	 x14=0x00000008
           2980	      1486	001000a6	4625	c.li	x12,9	 x12=0x00000009
           2982	      1487	001000a8	000206b7	lui	x13,0x20	 x13=0x00020000
           2984	      1488	001000ac	01c55793	srli	x15,x10,0x1c	 x10:0x47110000 x15=0x00000004
           2986	      1489	001000b0	00f66963	bltu	x12,x15,1000c2	 x12:0x00000009 x15:0x00000004  x0=0x00000000
           2988	      1490	001000b4	03078793	addi	x15,x15,48	 x15:0x00000004 x15=0x00000034
           2992	      1492	001000b8	c29c	c.sw	x15,0(x13)	 x13:0x00020000 x15:0x00000034 PA:0x00020000 store:0x00000034 load:0x00000000
           2994	      1493	001000ba	177d	c.addi	x14,-1	 x14:0x00000008 x14=0x00000007
           2996	      1494	001000bc	0512	c.slli	x10,0x4	 x10:0x47110000 x10=0x71100000
           3000	      1496	001000be	f77d	c.bnez	x14,1000ac	 x14:0x00000007
           3004	      1498	001000ac	01c55793	srli	x15,x10,0x1c	 x10:0x71100000 x15=0x00000007
           3006	      1499	001000b0	00f66963	bltu	x12,x15,1000c2	 x12:0x00000009 x15:0x00000007  x0=0x00000000
           3008	      1500	001000b4	03078793	addi	x15,x15,48	 x15:0x00000007 x15=0x00000037
           3012	      1502	001000b8	c29c	c.sw	x15,0(x13)	 x13:0x00020000 x15:0x00000037 PA:0x00020000 store:0x00000037 load:0x00000000
           3014	      1503	001000ba	177d	c.addi	x14,-1	 x14:0x00000007 x14=0x00000006
           3016	      1504	001000bc	0512	c.slli	x10,0x4	 x10:0x71100000 x10=0x11000000
           3020	      1506	001000be	f77d	c.bnez	x14,1000ac	 x14:0x00000006
           3024	      1508	001000ac	01c55793	srli	x15,x10,0x1c	 x10:0x11000000 x15=0x00000001
           3026	      1509	001000b0	00f66963	bltu	x12,x15,1000c2	 x12:0x00000009 x15:0x00000001  x0=0x00000000
           3028	      1510	001000b4	03078793	addi	x15,x15,48	 x15:0x00000001 x15=0x00000031
           3032	      1512	001000b8	c29c	c.sw	x15,0(x13)	 x13:0x00020000 x15:0x00000031 PA:0x00020000 store:0x00000031 load:0x00000000
           3034	      1513	001000ba	177d	c.addi	x14,-1	 x14:0x00000006 x14=0x00000005
           3036	      1514	001000bc	0512	c.slli	x10,0x4	 x10:0x11000000 x10=0x10000000
           3040	      1516	001000be	f77d	c.bnez	x14,1000ac	 x14:0x00000005
           3044	      1518	001000ac	01c55793	srli	x15,x10,0x1c	 x10:0x10000000 x15=0x00000001
           3046	      1519	001000b0	00f66963	bltu	x12,x15,1000c2	 x12:0x00000009 x15:0x00000001  x0=0x00000000
           3048	      1520	001000b4	03078793	addi	x15,x15,48	 x15:0x00000001 x15=0x00000031
           3052	      1522	001000b8	c29c	c.sw	x15,0(x13)	 x13:0x00020000 x15:0x00000031 PA:0x00020000 store:0x00000031 load:0x00000000
           3054	      1523	001000ba	177d	c.addi	x14,-1	 x14:0x00000005 x14=0x00000004
           3056	      1524	001000bc	0512	c.slli	x10,0x4	 x10:0x10000000 x10=0x00000000
           3060	      1526	001000be	f77d	c.bnez	x14,1000ac	 x14:0x00000004
           3064	      1528	001000ac	01c55793	srli	x15,x10,0x1c	 x10:0x00000000 x15=0x00000000
           3066	      1529	001000b0	00f66963	bltu	x12,x15,1000c2	 x12:0x00000009 x15:0x00000000  x0=0x00000000
           3068	      1530	001000b4	03078793	addi	x15,x15,48	 x15:0x00000000 x15=0x00000030
           3072	      1532	001000b8	c29c	c.sw	x15,0(x13)	 x13:0x00020000 x15:0x00000030 PA:0x00020000 store:0x00000030 load:0x00000000
           3074	      1533	001000ba	177d	c.addi	x14,-1	 x14:0x00000004 x14=0x00000003
           3076	      1534	001000bc	0512	c.slli	x10,0x4	 x10:0x00000000 x10=0x00000000
           3080	      1536	001000be	f77d	c.bnez	x14,1000ac	 x14:0x00000003
           3084	      1538	001000ac	01c55793	srli	x15,x10,0x1c	 x10:0x00000000 x15=0x00000000
           3086	      1539	001000b0	00f66963	bltu	x12,x15,1000c2	 x12:0x00000009 x15:0x00000000  x0=0x00000000
           3088	      1540	001000b4	03078793	addi	x15,x15,48	 x15:0x00000000 x15=0x00000030
           3092	      1542	001000b8	c29c	c.sw	x15,0(x13)	 x13:0x00020000 x15:0x00000030 PA:0x00020000 store:0x00000030 load:0x00000000
           3094	      1543	001000ba	177d	c.addi	x14,-1	 x14:0x00000003 x14=0x00000002
           3096	      1544	001000bc	0512	c.slli	x10,0x4	 x10:0x00000000 x10=0x00000000
           3100	      1546	001000be	f77d	c.bnez	x14,1000ac	 x14:0x00000002
           3104	      1548	001000ac	01c55793	srli	x15,x10,0x1c	 x10:0x00000000 x15=0x00000000
           3106	      1549	001000b0	00f66963	bltu	x12,x15,1000c2	 x12:0x00000009 x15:0x00000000  x0=0x00000000
           3108	      1550	001000b4	03078793	addi	x15,x15,48	 x15:0x00000000 x15=0x00000030
           3112	      1552	001000b8	c29c	c.sw	x15,0(x13)	 x13:0x00020000 x15:0x00000030 PA:0x00020000 store:0x00000030 load:0x00000000
           3114	      1553	001000ba	177d	c.addi	x14,-1	 x14:0x00000002 x14=0x00000001
           3116	      1554	001000bc	0512	c.slli	x10,0x4	 x10:0x00000000 x10=0x00000000
           3120	      1556	001000be	f77d	c.bnez	x14,1000ac	 x14:0x00000001
           3124	      1558	001000ac	01c55793	srli	x15,x10,0x1c	 x10:0x00000000 x15=0x00000000
           3126	      1559	001000b0	00f66963	bltu	x12,x15,1000c2	 x12:0x00000009 x15:0x00000000  x0=0x00000000
           3128	      1560	001000b4	03078793	addi	x15,x15,48	 x15:0x00000000 x15=0x00000030
           3132	      1562	001000b8	c29c	c.sw	x15,0(x13)	 x13:0x00020000 x15:0x00000030 PA:0x00020000 store:0x00000030 load:0x00000000
           3134	      1563	001000ba	177d	c.addi	x14,-1	 x14:0x00000001 x14=0x00000000
           3136	      1564	001000bc	0512	c.slli	x10,0x4	 x10:0x00000000 x10=0x00000000
           3138	      1565	001000be	f77d	c.bnez	x14,1000ac	 x14:0x00000000
           3142	      1567	001000c0	8082	c.jr	x1	  x1:0x00100a84
           3144	      1568	00100a84	854a	c.mv	x10,x18	  x0:0x00000000 x18:0x00100ae8 x10=0x00100ae8
           3148	      1570	00100a86	e0aff0ef	jal	x1,100090	  x1=0x00100a8a
           3150	      1571	00100090	00020737	lui	x14,0x20	 x14=0x00020000
           3154	      1573	00100094	00054783	lbu	x15,0(x10)	 x10:0x00100ae8 x15=0x0000000a PA:0x00100ae8 store:0x00000000
           3158	      1575	00100098	e399	c.bnez	x15,10009e	 x15:0x0000000a
           3162	      1577	0010009e	0505	c.addi	x10,1	 x10:0x00100ae8 x10=0x00100ae9
           3166	      1579	001000a0	c31c	c.sw	x15,0(x14)	 x14:0x00020000 x15:0x0000000a PA:0x00020000 store:0x0000000a load:0x00000000
           3170	      1581	001000a2	bfcd	c.j	100094	
           3174	      1583	00100094	00054783	lbu	x15,0(x10)	 x10:0x00100ae9 x15=0x00000000 PA:0x00100ae9 store:0x00000000
           3176	      1584	00100098	e399	c.bnez	x15,10009e	 x15:0x00000000
           3178	      1585	0010009a	4501	c.li	x10,0	 x10=0x00000000
           3182	      1587	0010009c	8082	c.jr	x1	  x1:0x00100a8a
           3188	      1590	00100a8a	fe9410e3	bne	x8,x9,100a6a	  x8:0x00000005  x9:0x00000008  x0=0x00000000
           3192	      1592	00100a6a	0098	c.addi4spn	x14,x2,64	 x14=0x001ffff0
           3194	      1593	00100a6c	00241793	slli	x15,x8,0x2	  x8:0x00000005 x15=0x00000014
           3196	      1594	00100a70	97ba	c.add	x15,x14	 x15:0x00000014 x14:0x001ffff0 x15=0x00200004
           3200	      1596	00100a72	fe07a583	lw	x11,-32(x15)	 x15:0x00200004 x11=0x44440000 PA:0x001fffe4 store:0x00000000
           3204	      1598	00100a76	fc07a503	lw	x10,-64(x15)	 x15:0x00200004 x10=0x33330000 PA:0x001fffc4 store:0x00000000
           3206	      1599	00100a7a	4641	c.li	x12,16	 x12=0x00000010
           3208	      1600	00100a7c	0405	c.addi	x8,1	  x8:0x00000005  x8=0x00000006
           3212	      1602	00100a7e	3aa9	c.jal	1003d8	  x1=0x00100a80
           3214	      1603	001003d8	ffe60693	addi	x13,x12,-2	 x12:0x00000010 x13=0x0000000e
           3216	      1604	001003dc	4879	c.li	x16,30	 x16=0x0000001e
           3218	      1605	001003de	87aa	c.mv	x15,x10	  x0:0x00000000 x10:0x33330000 x15=0x33330000
           3220	      1606	001003e0	872e	c.mv	x14,x11	  x0:0x00000000 x11:0x44440000 x14=0x44440000
           3222	      1607	001003e2	02d86263	bltu	x16,x13,100406	 x16:0x0000001e x13:0x0000000e  x0=0x00000000
           3224	      1608	001003e6	cd09	c.beqz	x10,100400	 x10:0x33330000
           3226	      1609	001003e8	cd81	c.beqz	x11,100400	 x11:0x44440000
           3228	      1610	001003ea	800006b7	lui	x13,0x80000	 x13=0x80000000
           3230	      1611	001003ee	00d50c63	beq	x10,x13,100406	 x10:0x33330000 x13:0x80000000  x0=0x00000000
           3232	      1612	001003f2	00d58a63	beq	x11,x13,100406	 x11:0x44440000 x13:0x80000000  x0=0x00000000
           3234	      1613	001003f6	00b547b3	xor	x15,x10,x11	 x10:0x33330000 x11:0x44440000 x15=0x77770000
           3236	      1614	001003fa	0007c963	blt	x15,x0,10040c	 x15:0x77770000  x0:0x00000000  x0=0x00000000
           3240	      1616	001003fe	a801	c.j	10040e	
           3242	      1617	0010040e	832a	c.mv	x6,x10	  x0:0x00000000 x10:0x33330000  x6=0x33330000
           3244	      1618	00100410	12054e63	blt	x10,x0,10054c	 x10:0x33330000  x0:0x00000000  x0=0x00000000
           3246	      1619	00100414	00b55563	bge	x10,x11,10041e	 x10:0x33330000 x11:0x44440000  x0=0x00000000
           3248	      1620	00100418	87aa	c.mv	x15,x10	  x0:0x00000000 x10:0x33330000 x15=0x33330000
           3250	      1621	0010041a	852e	c.mv	x10,x11	  x0:0x00000000 x11:0x44440000 x10=0x44440000
           3252	      1622	0010041c	85be	c.mv	x11,x15	  x0:0x00000000 x15:0x33330000 x11=0x33330000
           3254	      1623	0010041e	4789	c.li	x15,2	 x15=0x00000002
           3256	      1624	00100420	14f60563	beq	x12,x15,10056a	 x12:0x00000010 x15:0x00000002  x0=0x00000000
           3258	      1625	00100424	00151713	slli	x14,x10,0x1	 x10:0x44440000 x14=0x88880000
           3260	      1626	00100428	00251793	slli	x15,x10,0x2	 x10:0x44440000 x15=0x11100000
           3262	      1627	0010042c	12075563	bge	x14,x0,100556	 x14:0x88880000  x0:0x00000000  x0=0x00000000
           3264	      1628	00100430	4801	c.li	x16,0	 x16=0x00000000
           3268	      1630	00100432	0007d663	bge	x15,x0,10043e	 x15:0x11100000  x0:0x00000000  x0=0x00000000
           3274	      1633	0010043e	00179893	slli	x17,x15,0x1	 x15:0x11100000 x17=0x22200000
           3276	      1634	00100442	40000737	lui	x14,0x40000	 x14=0x40000000
           3278	      1635	00100446	00e8e8b3	or	x17,x17,x14	 x17:0x22200000 x14:0x40000000 x17=0x62200000
           3280	      1636	0010044a	01d7d713	srli	x14,x15,0x1d	 x15:0x11100000 x14=0x00000000
           3282	      1637	0010044e	800007b7	lui	x15,0x80000	 x15=0x80000000
           3284	      1638	00100452	fff7c793	xori	x15,x15,-1	 x15:0x80000000 x15=0x7fffffff
           3286	      1639	00100456	00159693	slli	x13,x11,0x1	 x11:0x33330000 x13=0x66660000
           3288	      1640	0010045a	00f8f8b3	and	x17,x17,x15	 x17:0x62200000 x15:0x7fffffff x17=0x62200000
           3290	      1641	0010045e	4f01	c.li	x30,0	 x30=0x00000000
           3292	      1642	00100460	00259793	slli	x15,x11,0x2	 x11:0x33330000 x15=0xcccc0000
           3296	      1644	00100464	1006df63	bge	x13,x0,100582	 x13:0x66660000  x0:0x00000000  x0=0x00000000
           3302	      1647	00100582	00180693	addi	x13,x16,1	 x16:0x00000000 x13=0x00000001
           3306	      1649	00100586	0007c663	blt	x15,x0,100592	 x15:0xcccc0000  x0:0x00000000  x0=0x00000000
           3310	      1651	00100592	0786	c.slli	x15,0x1	 x15:0xcccc0000 x15=0x99980000
           3312	      1652	00100594	8385	c.srli	x15,0x1	 x15:0x99980000 x15=0x4ccc0000
           3316	      1654	00100596	b5c5	c.j	100476	
           3318	      1655	00100476	068a	c.slli	x13,0x2	 x13:0x00000001 x13=0x00000004
           3320	      1656	00100478	01d7d513	srli	x10,x15,0x1d	 x15:0x4ccc0000 x10=0x00000002
           3322	      1657	0010047c	96ba	c.add	x13,x14	 x13:0x00000004 x14:0x00000000 x13=0x00000004
           3324	      1658	0010047e	8e89	c.sub	x13,x10	 x13:0x00000004 x10:0x00000002 x13=0x00000002
           3326	      1659	00100480	03f00513	addi	x10,x0,63	  x0:0x00000000 x10=0x0000003f
           3328	      1660	00100484	04d54463	blt	x10,x13,1004cc	 x10:0x0000003f x13:0x00000002  x0=0x00000000
           3330	      1661	00100488	400005b7	lui	x11,0x40000	 x11=0x40000000
           3332	      1662	0010048c	0786	c.slli	x15,0x1	 x15:0x4ccc0000 x15=0x99980000
           3334	      1663	0010048e	80000537	lui	x10,0x80000	 x10=0x80000000
           3336	      1664	00100492	8fcd	c.or	x15,x11	 x15:0x99980000 x11:0x40000000 x15=0xd9980000
           3338	      1665	00100494	fff54513	xori	x10,x10,-1	 x10:0x80000000 x10=0x7fffffff
           3340	      1666	00100498	fe068593	addi	x11,x13,-32	 x13:0x00000002 x11=0xffffffe2
           3342	      1667	0010049c	8fe9	c.and	x15,x10	 x15:0xd9980000 x10:0x7fffffff x15=0x59980000
           3346	      1669	0010049e	1205ce63	blt	x11,x0,1005da	 x11:0xffffffe2  x0:0x00000000  x0=0x00000000
           3350	      1671	001005da	457d	c.li	x10,31	 x10=0x0000001f
           3352	      1672	001005dc	00179593	slli	x11,x15,0x1	 x15:0x59980000 x11=0xb3300000
           3354	      1673	001005e0	8d15	c.sub	x10,x13	 x10:0x0000001f x13:0x00000002 x10=0x0000001d
           3356	      1674	001005e2	00a595b3	sll	x11,x11,x10	 x11:0xb3300000 x10:0x0000001d x11=0x00000000
           3358	      1675	001005e6	00d7d7b3	srl	x15,x15,x13	 x15:0x59980000 x13:0x00000002 x15=0x16660000
           3362	      1677	001005ea	bd7d	c.j	1004a8	
           3364	      1678	001004a8	97c6	c.add	x15,x17	 x15:0x16660000 x17:0x62200000 x15=0x78860000
           3366	      1679	001004aa	88be	c.mv	x17,x15	  x0:0x00000000 x15:0x78860000 x17=0x78860000
           3368	      1680	001004ac	8f2e	c.mv	x30,x11	  x0:0x00000000 x11:0x00000000 x30=0x00000000
           3372	      1682	001004ae	0007df63	bge	x15,x0,1004cc	 x15:0x78860000  x0:0x00000000  x0=0x00000000
           3376	      1684	001004cc	fff60e13	addi	x28,x12,-1	 x12:0x00000010 x28=0x0000000f
           3378	      1685	001004d0	0c084463	blt	x16,x0,100598	 x16:0x00000000  x0:0x00000000  x0=0x00000000
           3380	      1686	001004d4	00180e93	addi	x29,x16,1	 x16:0x00000000 x29=0x00000001
           3382	      1687	001004d8	0fced163	bge	x29,x28,1005ba	 x29:0x00000001 x28:0x0000000f  x0=0x00000000
           3384	      1688	001004dc	800006b7	lui	x13,0x80000	 x13=0x80000000
           3386	      1689	001004e0	fff6c513	xori	x10,x13,-1	 x13:0x80000000 x10=0x7fffffff
           3388	      1690	001004e4	41d557b3	sra	x15,x10,x29	 x10:0x7fffffff x29:0x00000001 x15=0x3fffffff
           3390	      1691	001004e8	8d1d	c.sub	x10,x15	 x10:0x7fffffff x15:0x3fffffff x10=0x40000000
           3392	      1692	001004ea	14cedd63	bge	x29,x12,100644	 x29:0x00000001 x12:0x00000010  x0=0x00000000
           3394	      1693	001004ee	088a	c.slli	x17,0x2	 x17:0x78860000 x17=0xe2180000
           3396	      1694	001004f0	fe380593	addi	x11,x16,-29	 x16:0x00000000 x11=0xffffffe3
           3398	      1695	001004f4	0028d893	srli	x17,x17,0x2	 x17:0xe2180000 x17=0x38860000
           3400	      1696	001004f8	00380793	addi	x15,x16,3	 x16:0x00000000 x15=0x00000003
           3404	      1698	001004fc	1c05c063	blt	x11,x0,1006bc	 x11:0xffffffe3  x0:0x00000000  x0=0x00000000
           3408	      1700	001006bc	45fd	c.li	x11,31	 x11=0x0000001f
           3410	      1701	001006be	8d9d	c.sub	x11,x15	 x11:0x0000001f x15:0x00000003 x11=0x0000001c
           3412	      1702	001006c0	00189693	slli	x13,x17,0x1	 x17:0x38860000 x13=0x710c0000
           3414	      1703	001006c4	00b696b3	sll	x13,x13,x11	 x13:0x710c0000 x11:0x0000001c x13=0x00000000
           3416	      1704	001006c8	00ff55b3	srl	x11,x30,x15	 x30:0x00000000 x15:0x00000003 x11=0x00000000
           3418	      1705	001006cc	8dd5	c.or	x11,x13	 x11:0x00000000 x13:0x00000000 x11=0x00000000
           3420	      1706	001006ce	00f8d6b3	srl	x13,x17,x15	 x17:0x38860000 x15:0x00000003 x13=0x0710c000
           3424	      1708	001006d2	bd15	c.j	100506	
           3426	      1709	00100506	47f1	c.li	x15,28	 x15=0x0000001c
           3428	      1710	00100508	41d787b3	sub	x15,x15,x29	 x15:0x0000001c x29:0x00000001 x15=0x0000001b
           3430	      1711	0010050c	ffd60813	addi	x16,x12,-3	 x12:0x00000010 x16=0x0000000d
           3432	      1712	00100510	0d0ede63	bge	x29,x16,1005ec	 x29:0x00000001 x16:0x0000000d  x0=0x00000000
           3434	      1713	00100514	80000837	lui	x16,0x80000	 x16=0x80000000
           3436	      1714	00100518	41c85e33	sra	x28,x16,x28	 x16:0x80000000 x28:0x0000000f x28=0xffff0000
           3438	      1715	0010051c	02000893	addi	x17,x0,32	  x0:0x00000000 x17=0x00000020
           3440	      1716	00100520	00de7e33	and	x28,x28,x13	 x28:0xffff0000 x13:0x0710c000 x28=0x07100000
           3442	      1717	00100524	40c888b3	sub	x17,x17,x12	 x17:0x00000020 x12:0x00000010 x17=0x00000010
           3444	      1718	00100528	00f717b3	sll	x15,x14,x15	 x14:0x00000000 x15:0x0000001b x15=0x00000000
           3446	      1719	0010052c	9572	c.add	x10,x28	 x10:0x40000000 x28:0x07100000 x10=0x47100000
           3448	      1720	0010052e	fe088713	addi	x14,x17,-32	 x17:0x00000010 x14=0xfffffff0
           3450	      1721	00100532	953e	c.add	x10,x15	 x10:0x47100000 x15:0x00000000 x10=0x47100000
           3454	      1723	00100534	14074b63	blt	x14,x0,10068a	 x14:0xfffffff0  x0:0x00000000  x0=0x00000000
           3458	      1725	0010068a	47fd	c.li	x15,31	 x15=0x0000001f
           3460	      1726	0010068c	411787b3	sub	x15,x15,x17	 x15:0x0000001f x17:0x00000010 x15=0x0000000f
           3462	      1727	00100690	40000737	lui	x14,0x40000	 x14=0x40000000
           3464	      1728	00100694	00f75733	srl	x14,x14,x15	 x14:0x40000000 x15:0x0000000f x14=0x00008000
           3466	      1729	00100698	011817b3	sll	x15,x16,x17	 x16:0x80000000 x17:0x00000010 x15=0x00000000
           3470	      1731	0010069c	b54d	c.j	10053e	
           3472	      1732	0010053e	8fed	c.and	x15,x11	 x15:0x00000000 x11:0x00000000 x15=0x00000000
           3474	      1733	00100540	8f75	c.and	x14,x13	 x14:0x00008000 x13:0x0710c000 x14=0x00008000
           3476	      1734	00100542	8fd9	c.or	x15,x14	 x15:0x00000000 x14:0x00008000 x15=0x00008000
           3480	      1736	00100544	e7f1	c.bnez	x15,100610	 x15:0x00008000
           3484	      1738	00100610	fe160893	addi	x17,x12,-31	 x12:0x00000010 x17=0xfffffff1
           3486	      1739	00100614	02000793	addi	x15,x0,32	  x0:0x00000000 x15=0x00000020
           3488	      1740	00100618	40c78833	sub	x16,x15,x12	 x15:0x00000020 x12:0x00000010 x16=0x00000010
           3490	      1741	0010061c	577d	c.li	x14,-1	 x14=0xffffffff
           3492	      1742	0010061e	0605	c.addi	x12,1	 x12:0x00000010 x12=0x00000011
           3496	      1744	00100620	0208c763	blt	x17,x0,10064e	 x17:0xfffffff1  x0:0x00000000  x0=0x00000000
           3500	      1746	0010064e	48fd	c.li	x17,31	 x17=0x0000001f
           3502	      1747	00100650	40c887b3	sub	x15,x17,x12	 x17:0x0000001f x12:0x00000011 x15=0x0000000e
           3504	      1748	00100654	58f9	c.li	x17,-2	 x17=0xfffffffe
           3506	      1749	00100656	00f898b3	sll	x17,x17,x15	 x17:0xfffffffe x15:0x0000000e x17=0xffff8000
           3508	      1750	0010065a	00c757b3	srl	x15,x14,x12	 x14:0xffffffff x12:0x00000011 x15=0x00007fff
           3510	      1751	0010065e	00f8e7b3	or	x15,x17,x15	 x17:0xffff8000 x15:0x00007fff x15=0xffffffff
           3512	      1752	00100662	00c75633	srl	x12,x14,x12	 x14:0xffffffff x12:0x00000011 x12=0x00007fff
           3516	      1754	00100666	b7d1	c.j	10062a	
           3518	      1755	0010062a	8fed	c.and	x15,x11	 x15:0xffffffff x11:0x00000000 x15=0x00000000
           3520	      1756	0010062c	8ef1	c.and	x13,x12	 x13:0x0710c000 x12:0x00007fff x13=0x00004000
           3522	      1757	0010062e	01055733	srl	x14,x10,x16	 x10:0x47100000 x16:0x00000010 x14=0x00004710
           3524	      1758	00100632	8fd5	c.or	x15,x13	 x15:0x00000000 x13:0x00004000 x15=0x00004000
           3526	      1759	00100634	00f037b3	sltu	x15,x0,x15	  x0:0x00000000 x15:0x00004000 x15=0x00000001
           3528	      1760	00100638	8b05	c.andi	x14,1	 x14:0x00004710 x14=0x00000000
           3530	      1761	0010063a	8fd9	c.or	x15,x14	 x15:0x00000001 x14:0x00000000 x15=0x00000001
           3532	      1762	0010063c	010797b3	sll	x15,x15,x16	 x15:0x00000001 x16:0x00000010 x15=0x00010000
           3534	      1763	00100640	953e	c.add	x10,x15	 x10:0x47100000 x15:0x00010000 x10=0x47110000
           3538	      1765	00100642	b711	c.j	100546	
           3542	      1767	00100546	02034b63	blt	x6,x0,10057c	  x6:0x33330000  x0:0x00000000  x0=0x00000000
           3546	      1769	0010054a	8082	c.jr	x1	  x1:0x00100a80
           3550	      1771	00100a80	e24ff0ef	jal	x1,1000a4	  x1=0x00100a84
           3552	      1772	001000a4	4721	c.li	x14,8	 x14=0x00000008
           3554	      1773	001000a6	4625	c.li	x12,9	 x12=0x00000009
           3556	      1774	001000a8	000206b7	lui	x13,0x20	 x13=0x00020000
           3558	      1775	001000ac	01c55793	srli	x15,x10,0x1c	 x10:0x47110000 x15=0x00000004
           3560	      1776	001000b0	00f66963	bltu	x12,x15,1000c2	 x12:0x00000009 x15:0x00000004  x0=0x00000000
           3562	      1777	001000b4	03078793	addi	x15,x15,48	 x15:0x00000004 x15=0x00000034
           3566	      1779	001000b8	c29c	c.sw	x15,0(x13)	 x13:0x00020000 x15:0x00000034 PA:0x00020000 store:0x00000034 load:0x00000000
           3568	      1780	001000ba	177d	c.addi	x14,-1	 x14:0x00000008 x14=0x00000007
           3570	      1781	001000bc	0512	c.slli	x10,0x4	 x10:0x47110000 x10=0x71100000
           3574	      1783	001000be	f77d	c.bnez	x14,1000ac	 x14:0x00000007
           3578	      1785	001000ac	01c55793	srli	x15,x10,0x1c	 x10:0x71100000 x15=0x00000007
           3580	      1786	001000b0	00f66963	bltu	x12,x15,1000c2	 x12:0x00000009 x15:0x00000007  x0=0x00000000
           3582	      1787	001000b4	03078793	addi	x15,x15,48	 x15:0x00000007 x15=0x00000037
           3586	      1789	001000b8	c29c	c.sw	x15,0(x13)	 x13:0x00020000 x15:0x00000037 PA:0x00020000 store:0x00000037 load:0x00000000
           3588	      1790	001000ba	177d	c.addi	x14,-1	 x14:0x00000007 x14=0x00000006
           3590	      1791	001000bc	0512	c.slli	x10,0x4	 x10:0x71100000 x10=0x11000000
           3594	      1793	001000be	f77d	c.bnez	x14,1000ac	 x14:0x00000006
           3598	      1795	001000ac	01c55793	srli	x15,x10,0x1c	 x10:0x11000000 x15=0x00000001
           3600	      1796	001000b0	00f66963	bltu	x12,x15,1000c2	 x12:0x00000009 x15:0x00000001  x0=0x00000000
           3602	      1797	001000b4	03078793	addi	x15,x15,48	 x15:0x00000001 x15=0x00000031
           3606	      1799	001000b8	c29c	c.sw	x15,0(x13)	 x13:0x00020000 x15:0x00000031 PA:0x00020000 store:0x00000031 load:0x00000000
           3608	      1800	001000ba	177d	c.addi	x14,-1	 x14:0x00000006 x14=0x00000005
           3610	      1801	001000bc	0512	c.slli	x10,0x4	 x10:0x11000000 x10=0x10000000
           3614	      1803	001000be	f77d	c.bnez	x14,1000ac	 x14:0x00000005
           3618	      1805	001000ac	01c55793	srli	x15,x10,0x1c	 x10:0x10000000 x15=0x00000001
           3620	      1806	001000b0	00f66963	bltu	x12,x15,1000c2	 x12:0x00000009 x15:0x00000001  x0=0x00000000
           3622	      1807	001000b4	03078793	addi	x15,x15,48	 x15:0x00000001 x15=0x00000031
           3626	      1809	001000b8	c29c	c.sw	x15,0(x13)	 x13:0x00020000 x15:0x00000031 PA:0x00020000 store:0x00000031 load:0x00000000
           3628	      1810	001000ba	177d	c.addi	x14,-1	 x14:0x00000005 x14=0x00000004
           3630	      1811	001000bc	0512	c.slli	x10,0x4	 x10:0x10000000 x10=0x00000000
           3634	      1813	001000be	f77d	c.bnez	x14,1000ac	 x14:0x00000004
           3638	      1815	001000ac	01c55793	srli	x15,x10,0x1c	 x10:0x00000000 x15=0x00000000
           3640	      1816	001000b0	00f66963	bltu	x12,x15,1000c2	 x12:0x00000009 x15:0x00000000  x0=0x00000000
           3642	      1817	001000b4	03078793	addi	x15,x15,48	 x15:0x00000000 x15=0x00000030
           3646	      1819	001000b8	c29c	c.sw	x15,0(x13)	 x13:0x00020000 x15:0x00000030 PA:0x00020000 store:0x00000030 load:0x00000000
           3648	      1820	001000ba	177d	c.addi	x14,-1	 x14:0x00000004 x14=0x00000003
           3650	      1821	001000bc	0512	c.slli	x10,0x4	 x10:0x00000000 x10=0x00000000
           3654	      1823	001000be	f77d	c.bnez	x14,1000ac	 x14:0x00000003
           3658	      1825	001000ac	01c55793	srli	x15,x10,0x1c	 x10:0x00000000 x15=0x00000000
           3660	      1826	001000b0	00f66963	bltu	x12,x15,1000c2	 x12:0x00000009 x15:0x00000000  x0=0x00000000
           3662	      1827	001000b4	03078793	addi	x15,x15,48	 x15:0x00000000 x15=0x00000030
           3666	      1829	001000b8	c29c	c.sw	x15,0(x13)	 x13:0x00020000 x15:0x00000030 PA:0x00020000 store:0x00000030 load:0x00000000
           3668	      1830	001000ba	177d	c.addi	x14,-1	 x14:0x00000003 x14=0x00000002
           3670	      1831	001000bc	0512	c.slli	x10,0x4	 x10:0x00000000 x10=0x00000000
           3674	      1833	001000be	f77d	c.bnez	x14,1000ac	 x14:0x00000002
           3678	      1835	001000ac	01c55793	srli	x15,x10,0x1c	 x10:0x00000000 x15=0x00000000
           3680	      1836	001000b0	00f66963	bltu	x12,x15,1000c2	 x12:0x00000009 x15:0x00000000  x0=0x00000000
           3682	      1837	001000b4	03078793	addi	x15,x15,48	 x15:0x00000000 x15=0x00000030
           3686	      1839	001000b8	c29c	c.sw	x15,0(x13)	 x13:0x00020000 x15:0x00000030 PA:0x00020000 store:0x00000030 load:0x00000000
           3688	      1840	001000ba	177d	c.addi	x14,-1	 x14:0x00000002 x14=0x00000001
           3690	      1841	001000bc	0512	c.slli	x10,0x4	 x10:0x00000000 x10=0x00000000
           3694	      1843	001000be	f77d	c.bnez	x14,1000ac	 x14:0x00000001
           3698	      1845	001000ac	01c55793	srli	x15,x10,0x1c	 x10:0x00000000 x15=0x00000000
           3700	      1846	001000b0	00f66963	bltu	x12,x15,1000c2	 x12:0x00000009 x15:0x00000000  x0=0x00000000
           3702	      1847	001000b4	03078793	addi	x15,x15,48	 x15:0x00000000 x15=0x00000030
           3706	      1849	001000b8	c29c	c.sw	x15,0(x13)	 x13:0x00020000 x15:0x00000030 PA:0x00020000 store:0x00000030 load:0x00000000
           3708	      1850	001000ba	177d	c.addi	x14,-1	 x14:0x00000001 x14=0x00000000
           3710	      1851	001000bc	0512	c.slli	x10,0x4	 x10:0x00000000 x10=0x00000000
           3712	      1852	001000be	f77d	c.bnez	x14,1000ac	 x14:0x00000000
           3716	      1854	001000c0	8082	c.jr	x1	  x1:0x00100a84
           3718	      1855	00100a84	854a	c.mv	x10,x18	  x0:0x00000000 x18:0x00100ae8 x10=0x00100ae8
           3722	      1857	00100a86	e0aff0ef	jal	x1,100090	  x1=0x00100a8a
           3724	      1858	00100090	00020737	lui	x14,0x20	 x14=0x00020000
           3728	      1860	00100094	00054783	lbu	x15,0(x10)	 x10:0x00100ae8 x15=0x0000000a PA:0x00100ae8 store:0x00000000
           3732	      1862	00100098	e399	c.bnez	x15,10009e	 x15:0x0000000a
           3736	      1864	0010009e	0505	c.addi	x10,1	 x10:0x00100ae8 x10=0x00100ae9
           3740	      1866	001000a0	c31c	c.sw	x15,0(x14)	 x14:0x00020000 x15:0x0000000a PA:0x00020000 store:0x0000000a load:0x00000000
           3744	      1868	001000a2	bfcd	c.j	100094	
           3748	      1870	00100094	00054783	lbu	x15,0(x10)	 x10:0x00100ae9 x15=0x00000000 PA:0x00100ae9 store:0x00000000
           3750	      1871	00100098	e399	c.bnez	x15,10009e	 x15:0x00000000
           3752	      1872	0010009a	4501	c.li	x10,0	 x10=0x00000000
           3756	      1874	0010009c	8082	c.jr	x1	  x1:0x00100a8a
           3762	      1877	00100a8a	fe9410e3	bne	x8,x9,100a6a	  x8:0x00000006  x9:0x00000008  x0=0x00000000
           3766	      1879	00100a6a	0098	c.addi4spn	x14,x2,64	 x14=0x001ffff0
           3768	      1880	00100a6c	00241793	slli	x15,x8,0x2	  x8:0x00000006 x15=0x00000018
           3770	      1881	00100a70	97ba	c.add	x15,x14	 x15:0x00000018 x14:0x001ffff0 x15=0x00200008
           3774	      1883	00100a72	fe07a583	lw	x11,-32(x15)	 x15:0x00200008 x11=0x44440000 PA:0x001fffe8 store:0x00000000
           3778	      1885	00100a76	fc07a503	lw	x10,-64(x15)	 x15:0x00200008 x10=0x33330000 PA:0x001fffc8 store:0x00000000
           3780	      1886	00100a7a	4641	c.li	x12,16	 x12=0x00000010
           3782	      1887	00100a7c	0405	c.addi	x8,1	  x8:0x00000006  x8=0x00000007
           3786	      1889	00100a7e	3aa9	c.jal	1003d8	  x1=0x00100a80
           3788	      1890	001003d8	ffe60693	addi	x13,x12,-2	 x12:0x00000010 x13=0x0000000e
           3790	      1891	001003dc	4879	c.li	x16,30	 x16=0x0000001e
           3792	      1892	001003de	87aa	c.mv	x15,x10	  x0:0x00000000 x10:0x33330000 x15=0x33330000
           3794	      1893	001003e0	872e	c.mv	x14,x11	  x0:0x00000000 x11:0x44440000 x14=0x44440000
           3796	      1894	001003e2	02d86263	bltu	x16,x13,100406	 x16:0x0000001e x13:0x0000000e  x0=0x00000000
           3798	      1895	001003e6	cd09	c.beqz	x10,100400	 x10:0x33330000
           3800	      1896	001003e8	cd81	c.beqz	x11,100400	 x11:0x44440000
           3802	      1897	001003ea	800006b7	lui	x13,0x80000	 x13=0x80000000
           3804	      1898	001003ee	00d50c63	beq	x10,x13,100406	 x10:0x33330000 x13:0x80000000  x0=0x00000000
           3806	      1899	001003f2	00d58a63	beq	x11,x13,100406	 x11:0x44440000 x13:0x80000000  x0=0x00000000
           3808	      1900	001003f6	00b547b3	xor	x15,x10,x11	 x10:0x33330000 x11:0x44440000 x15=0x77770000
           3810	      1901	001003fa	0007c963	blt	x15,x0,10040c	 x15:0x77770000  x0:0x00000000  x0=0x00000000
           3814	      1903	001003fe	a801	c.j	10040e	
           3816	      1904	0010040e	832a	c.mv	x6,x10	  x0:0x00000000 x10:0x33330000  x6=0x33330000
           3818	      1905	00100410	12054e63	blt	x10,x0,10054c	 x10:0x33330000  x0:0x00000000  x0=0x00000000
           3820	      1906	00100414	00b55563	bge	x10,x11,10041e	 x10:0x33330000 x11:0x44440000  x0=0x00000000
           3822	      1907	00100418	87aa	c.mv	x15,x10	  x0:0x00000000 x10:0x33330000 x15=0x33330000
           3824	      1908	0010041a	852e	c.mv	x10,x11	  x0:0x00000000 x11:0x44440000 x10=0x44440000
           3826	      1909	0010041c	85be	c.mv	x11,x15	  x0:0x00000000 x15:0x33330000 x11=0x33330000
           3828	      1910	0010041e	4789	c.li	x15,2	 x15=0x00000002
           3830	      1911	00100420	14f60563	beq	x12,x15,10056a	 x12:0x00000010 x15:0x00000002  x0=0x00000000
           3832	      1912	00100424	00151713	slli	x14,x10,0x1	 x10:0x44440000 x14=0x88880000
           3834	      1913	00100428	00251793	slli	x15,x10,0x2	 x10:0x44440000 x15=0x11100000
           3836	      1914	0010042c	12075563	bge	x14,x0,100556	 x14:0x88880000  x0:0x00000000  x0=0x00000000
           3838	      1915	00100430	4801	c.li	x16,0	 x16=0x00000000
           3842	      1917	00100432	0007d663	bge	x15,x0,10043e	 x15:0x11100000  x0:0x00000000  x0=0x00000000
           3848	      1920	0010043e	00179893	slli	x17,x15,0x1	 x15:0x11100000 x17=0x22200000
           3850	      1921	00100442	40000737	lui	x14,0x40000	 x14=0x40000000
           3852	      1922	00100446	00e8e8b3	or	x17,x17,x14	 x17:0x22200000 x14:0x40000000 x17=0x62200000
           3854	      1923	0010044a	01d7d713	srli	x14,x15,0x1d	 x15:0x11100000 x14=0x00000000
           3856	      1924	0010044e	800007b7	lui	x15,0x80000	 x15=0x80000000
           3858	      1925	00100452	fff7c793	xori	x15,x15,-1	 x15:0x80000000 x15=0x7fffffff
           3860	      1926	00100456	00159693	slli	x13,x11,0x1	 x11:0x33330000 x13=0x66660000
           3862	      1927	0010045a	00f8f8b3	and	x17,x17,x15	 x17:0x62200000 x15:0x7fffffff x17=0x62200000
           3864	      1928	0010045e	4f01	c.li	x30,0	 x30=0x00000000
           3866	      1929	00100460	00259793	slli	x15,x11,0x2	 x11:0x33330000 x15=0xcccc0000
           3870	      1931	00100464	1006df63	bge	x13,x0,100582	 x13:0x66660000  x0:0x00000000  x0=0x00000000
           3876	      1934	00100582	00180693	addi	x13,x16,1	 x16:0x00000000 x13=0x00000001
           3880	      1936	00100586	0007c663	blt	x15,x0,100592	 x15:0xcccc0000  x0:0x00000000  x0=0x00000000
           3884	      1938	00100592	0786	c.slli	x15,0x1	 x15:0xcccc0000 x15=0x99980000
           3886	      1939	00100594	8385	c.srli	x15,0x1	 x15:0x99980000 x15=0x4ccc0000
           3890	      1941	00100596	b5c5	c.j	100476	
           3892	      1942	00100476	068a	c.slli	x13,0x2	 x13:0x00000001 x13=0x00000004
           3894	      1943	00100478	01d7d513	srli	x10,x15,0x1d	 x15:0x4ccc0000 x10=0x00000002
           3896	      1944	0010047c	96ba	c.add	x13,x14	 x13:0x00000004 x14:0x00000000 x13=0x00000004
           3898	      1945	0010047e	8e89	c.sub	x13,x10	 x13:0x00000004 x10:0x00000002 x13=0x00000002
           3900	      1946	00100480	03f00513	addi	x10,x0,63	  x0:0x00000000 x10=0x0000003f
           3902	      1947	00100484	04d54463	blt	x10,x13,1004cc	 x10:0x0000003f x13:0x00000002  x0=0x00000000
           3904	      1948	00100488	400005b7	lui	x11,0x40000	 x11=0x40000000
           3906	      1949	0010048c	0786	c.slli	x15,0x1	 x15:0x4ccc0000 x15=0x99980000
           3908	      1950	0010048e	80000537	lui	x10,0x80000	 x10=0x80000000
           3910	      1951	00100492	8fcd	c.or	x15,x11	 x15:0x99980000 x11:0x40000000 x15=0xd9980000
           3912	      1952	00100494	fff54513	xori	x10,x10,-1	 x10:0x80000000 x10=0x7fffffff
           3914	      1953	00100498	fe068593	addi	x11,x13,-32	 x13:0x00000002 x11=0xffffffe2
           3916	      1954	0010049c	8fe9	c.and	x15,x10	 x15:0xd9980000 x10:0x7fffffff x15=0x59980000
           3920	      1956	0010049e	1205ce63	blt	x11,x0,1005da	 x11:0xffffffe2  x0:0x00000000  x0=0x00000000
           3924	      1958	001005da	457d	c.li	x10,31	 x10=0x0000001f
           3926	      1959	001005dc	00179593	slli	x11,x15,0x1	 x15:0x59980000 x11=0xb3300000
           3928	      1960	001005e0	8d15	c.sub	x10,x13	 x10:0x0000001f x13:0x00000002 x10=0x0000001d
           3930	      1961	001005e2	00a595b3	sll	x11,x11,x10	 x11:0xb3300000 x10:0x0000001d x11=0x00000000
           3932	      1962	001005e6	00d7d7b3	srl	x15,x15,x13	 x15:0x59980000 x13:0x00000002 x15=0x16660000
           3936	      1964	001005ea	bd7d	c.j	1004a8	
           3938	      1965	001004a8	97c6	c.add	x15,x17	 x15:0x16660000 x17:0x62200000 x15=0x78860000
           3940	      1966	001004aa	88be	c.mv	x17,x15	  x0:0x00000000 x15:0x78860000 x17=0x78860000
           3942	      1967	001004ac	8f2e	c.mv	x30,x11	  x0:0x00000000 x11:0x00000000 x30=0x00000000
           3946	      1969	001004ae	0007df63	bge	x15,x0,1004cc	 x15:0x78860000  x0:0x00000000  x0=0x00000000
           3950	      1971	001004cc	fff60e13	addi	x28,x12,-1	 x12:0x00000010 x28=0x0000000f
           3952	      1972	001004d0	0c084463	blt	x16,x0,100598	 x16:0x00000000  x0:0x00000000  x0=0x00000000
           3954	      1973	001004d4	00180e93	addi	x29,x16,1	 x16:0x00000000 x29=0x00000001
           3956	      1974	001004d8	0fced163	bge	x29,x28,1005ba	 x29:0x00000001 x28:0x0000000f  x0=0x00000000
           3958	      1975	001004dc	800006b7	lui	x13,0x80000	 x13=0x80000000
           3960	      1976	001004e0	fff6c513	xori	x10,x13,-1	 x13:0x80000000 x10=0x7fffffff
           3962	      1977	001004e4	41d557b3	sra	x15,x10,x29	 x10:0x7fffffff x29:0x00000001 x15=0x3fffffff
           3964	      1978	001004e8	8d1d	c.sub	x10,x15	 x10:0x7fffffff x15:0x3fffffff x10=0x40000000
           3966	      1979	001004ea	14cedd63	bge	x29,x12,100644	 x29:0x00000001 x12:0x00000010  x0=0x00000000
           3968	      1980	001004ee	088a	c.slli	x17,0x2	 x17:0x78860000 x17=0xe2180000
           3970	      1981	001004f0	fe380593	addi	x11,x16,-29	 x16:0x00000000 x11=0xffffffe3
           3972	      1982	001004f4	0028d893	srli	x17,x17,0x2	 x17:0xe2180000 x17=0x38860000
           3974	      1983	001004f8	00380793	addi	x15,x16,3	 x16:0x00000000 x15=0x00000003
           3978	      1985	001004fc	1c05c063	blt	x11,x0,1006bc	 x11:0xffffffe3  x0:0x00000000  x0=0x00000000
           3982	      1987	001006bc	45fd	c.li	x11,31	 x11=0x0000001f
           3984	      1988	001006be	8d9d	c.sub	x11,x15	 x11:0x0000001f x15:0x00000003 x11=0x0000001c
           3986	      1989	001006c0	00189693	slli	x13,x17,0x1	 x17:0x38860000 x13=0x710c0000
           3988	      1990	001006c4	00b696b3	sll	x13,x13,x11	 x13:0x710c0000 x11:0x0000001c x13=0x00000000
           3990	      1991	001006c8	00ff55b3	srl	x11,x30,x15	 x30:0x00000000 x15:0x00000003 x11=0x00000000
           3992	      1992	001006cc	8dd5	c.or	x11,x13	 x11:0x00000000 x13:0x00000000 x11=0x00000000
           3994	      1993	001006ce	00f8d6b3	srl	x13,x17,x15	 x17:0x38860000 x15:0x00000003 x13=0x0710c000
           3998	      1995	001006d2	bd15	c.j	100506	
           4000	      1996	00100506	47f1	c.li	x15,28	 x15=0x0000001c
           4002	      1997	00100508	41d787b3	sub	x15,x15,x29	 x15:0x0000001c x29:0x00000001 x15=0x0000001b
           4004	      1998	0010050c	ffd60813	addi	x16,x12,-3	 x12:0x00000010 x16=0x0000000d
           4006	      1999	00100510	0d0ede63	bge	x29,x16,1005ec	 x29:0x00000001 x16:0x0000000d  x0=0x00000000
           4008	      2000	00100514	80000837	lui	x16,0x80000	 x16=0x80000000
           4010	      2001	00100518	41c85e33	sra	x28,x16,x28	 x16:0x80000000 x28:0x0000000f x28=0xffff0000
           4012	      2002	0010051c	02000893	addi	x17,x0,32	  x0:0x00000000 x17=0x00000020
           4014	      2003	00100520	00de7e33	and	x28,x28,x13	 x28:0xffff0000 x13:0x0710c000 x28=0x07100000
           4016	      2004	00100524	40c888b3	sub	x17,x17,x12	 x17:0x00000020 x12:0x00000010 x17=0x00000010
           4018	      2005	00100528	00f717b3	sll	x15,x14,x15	 x14:0x00000000 x15:0x0000001b x15=0x00000000
           4020	      2006	0010052c	9572	c.add	x10,x28	 x10:0x40000000 x28:0x07100000 x10=0x47100000
           4022	      2007	0010052e	fe088713	addi	x14,x17,-32	 x17:0x00000010 x14=0xfffffff0
           4024	      2008	00100532	953e	c.add	x10,x15	 x10:0x47100000 x15:0x00000000 x10=0x47100000
           4028	      2010	00100534	14074b63	blt	x14,x0,10068a	 x14:0xfffffff0  x0:0x00000000  x0=0x00000000
           4032	      2012	0010068a	47fd	c.li	x15,31	 x15=0x0000001f
           4034	      2013	0010068c	411787b3	sub	x15,x15,x17	 x15:0x0000001f x17:0x00000010 x15=0x0000000f
           4036	      2014	00100690	40000737	lui	x14,0x40000	 x14=0x40000000
           4038	      2015	00100694	00f75733	srl	x14,x14,x15	 x14:0x40000000 x15:0x0000000f x14=0x00008000
           4040	      2016	00100698	011817b3	sll	x15,x16,x17	 x16:0x80000000 x17:0x00000010 x15=0x00000000
           4044	      2018	0010069c	b54d	c.j	10053e	
           4046	      2019	0010053e	8fed	c.and	x15,x11	 x15:0x00000000 x11:0x00000000 x15=0x00000000
           4048	      2020	00100540	8f75	c.and	x14,x13	 x14:0x00008000 x13:0x0710c000 x14=0x00008000
           4050	      2021	00100542	8fd9	c.or	x15,x14	 x15:0x00000000 x14:0x00008000 x15=0x00008000
           4054	      2023	00100544	e7f1	c.bnez	x15,100610	 x15:0x00008000
           4058	      2025	00100610	fe160893	addi	x17,x12,-31	 x12:0x00000010 x17=0xfffffff1
           4060	      2026	00100614	02000793	addi	x15,x0,32	  x0:0x00000000 x15=0x00000020
           4062	      2027	00100618	40c78833	sub	x16,x15,x12	 x15:0x00000020 x12:0x00000010 x16=0x00000010
           4064	      2028	0010061c	577d	c.li	x14,-1	 x14=0xffffffff
           4066	      2029	0010061e	0605	c.addi	x12,1	 x12:0x00000010 x12=0x00000011
           4070	      2031	00100620	0208c763	blt	x17,x0,10064e	 x17:0xfffffff1  x0:0x00000000  x0=0x00000000
           4074	      2033	0010064e	48fd	c.li	x17,31	 x17=0x0000001f
           4076	      2034	00100650	40c887b3	sub	x15,x17,x12	 x17:0x0000001f x12:0x00000011 x15=0x0000000e
           4078	      2035	00100654	58f9	c.li	x17,-2	 x17=0xfffffffe
           4080	      2036	00100656	00f898b3	sll	x17,x17,x15	 x17:0xfffffffe x15:0x0000000e x17=0xffff8000
           4082	      2037	0010065a	00c757b3	srl	x15,x14,x12	 x14:0xffffffff x12:0x00000011 x15=0x00007fff
           4084	      2038	0010065e	00f8e7b3	or	x15,x17,x15	 x17:0xffff8000 x15:0x00007fff x15=0xffffffff
           4086	      2039	00100662	00c75633	srl	x12,x14,x12	 x14:0xffffffff x12:0x00000011 x12=0x00007fff
           4090	      2041	00100666	b7d1	c.j	10062a	
           4092	      2042	0010062a	8fed	c.and	x15,x11	 x15:0xffffffff x11:0x00000000 x15=0x00000000
           4094	      2043	0010062c	8ef1	c.and	x13,x12	 x13:0x0710c000 x12:0x00007fff x13=0x00004000
           4096	      2044	0010062e	01055733	srl	x14,x10,x16	 x10:0x47100000 x16:0x00000010 x14=0x00004710
           4098	      2045	00100632	8fd5	c.or	x15,x13	 x15:0x00000000 x13:0x00004000 x15=0x00004000
           4100	      2046	00100634	00f037b3	sltu	x15,x0,x15	  x0:0x00000000 x15:0x00004000 x15=0x00000001
           4102	      2047	00100638	8b05	c.andi	x14,1	 x14:0x00004710 x14=0x00000000
           4104	      2048	0010063a	8fd9	c.or	x15,x14	 x15:0x00000001 x14:0x00000000 x15=0x00000001
           4106	      2049	0010063c	010797b3	sll	x15,x15,x16	 x15:0x00000001 x16:0x00000010 x15=0x00010000
           4108	      2050	00100640	953e	c.add	x10,x15	 x10:0x47100000 x15:0x00010000 x10=0x47110000
           4112	      2052	00100642	b711	c.j	100546	
           4116	      2054	00100546	02034b63	blt	x6,x0,10057c	  x6:0x33330000  x0:0x00000000  x0=0x00000000
           4120	      2056	0010054a	8082	c.jr	x1	  x1:0x00100a80
           4124	      2058	00100a80	e24ff0ef	jal	x1,1000a4	  x1=0x00100a84
           4126	      2059	001000a4	4721	c.li	x14,8	 x14=0x00000008
           4128	      2060	001000a6	4625	c.li	x12,9	 x12=0x00000009
           4130	      2061	001000a8	000206b7	lui	x13,0x20	 x13=0x00020000
           4132	      2062	001000ac	01c55793	srli	x15,x10,0x1c	 x10:0x47110000 x15=0x00000004
           4134	      2063	001000b0	00f66963	bltu	x12,x15,1000c2	 x12:0x00000009 x15:0x00000004  x0=0x00000000
           4136	      2064	001000b4	03078793	addi	x15,x15,48	 x15:0x00000004 x15=0x00000034
           4140	      2066	001000b8	c29c	c.sw	x15,0(x13)	 x13:0x00020000 x15:0x00000034 PA:0x00020000 store:0x00000034 load:0x00000000
           4142	      2067	001000ba	177d	c.addi	x14,-1	 x14:0x00000008 x14=0x00000007
           4144	      2068	001000bc	0512	c.slli	x10,0x4	 x10:0x47110000 x10=0x71100000
           4148	      2070	001000be	f77d	c.bnez	x14,1000ac	 x14:0x00000007
           4152	      2072	001000ac	01c55793	srli	x15,x10,0x1c	 x10:0x71100000 x15=0x00000007
           4154	      2073	001000b0	00f66963	bltu	x12,x15,1000c2	 x12:0x00000009 x15:0x00000007  x0=0x00000000
           4156	      2074	001000b4	03078793	addi	x15,x15,48	 x15:0x00000007 x15=0x00000037
           4160	      2076	001000b8	c29c	c.sw	x15,0(x13)	 x13:0x00020000 x15:0x00000037 PA:0x00020000 store:0x00000037 load:0x00000000
           4162	      2077	001000ba	177d	c.addi	x14,-1	 x14:0x00000007 x14=0x00000006
           4164	      2078	001000bc	0512	c.slli	x10,0x4	 x10:0x71100000 x10=0x11000000
           4168	      2080	001000be	f77d	c.bnez	x14,1000ac	 x14:0x00000006
           4172	      2082	001000ac	01c55793	srli	x15,x10,0x1c	 x10:0x11000000 x15=0x00000001
           4174	      2083	001000b0	00f66963	bltu	x12,x15,1000c2	 x12:0x00000009 x15:0x00000001  x0=0x00000000
           4176	      2084	001000b4	03078793	addi	x15,x15,48	 x15:0x00000001 x15=0x00000031
           4180	      2086	001000b8	c29c	c.sw	x15,0(x13)	 x13:0x00020000 x15:0x00000031 PA:0x00020000 store:0x00000031 load:0x00000000
           4182	      2087	001000ba	177d	c.addi	x14,-1	 x14:0x00000006 x14=0x00000005
           4184	      2088	001000bc	0512	c.slli	x10,0x4	 x10:0x11000000 x10=0x10000000
           4188	      2090	001000be	f77d	c.bnez	x14,1000ac	 x14:0x00000005
           4192	      2092	001000ac	01c55793	srli	x15,x10,0x1c	 x10:0x10000000 x15=0x00000001
           4194	      2093	001000b0	00f66963	bltu	x12,x15,1000c2	 x12:0x00000009 x15:0x00000001  x0=0x00000000
           4196	      2094	001000b4	03078793	addi	x15,x15,48	 x15:0x00000001 x15=0x00000031
           4200	      2096	001000b8	c29c	c.sw	x15,0(x13)	 x13:0x00020000 x15:0x00000031 PA:0x00020000 store:0x00000031 load:0x00000000
           4202	      2097	001000ba	177d	c.addi	x14,-1	 x14:0x00000005 x14=0x00000004
           4204	      2098	001000bc	0512	c.slli	x10,0x4	 x10:0x10000000 x10=0x00000000
           4208	      2100	001000be	f77d	c.bnez	x14,1000ac	 x14:0x00000004
           4212	      2102	001000ac	01c55793	srli	x15,x10,0x1c	 x10:0x00000000 x15=0x00000000
           4214	      2103	001000b0	00f66963	bltu	x12,x15,1000c2	 x12:0x00000009 x15:0x00000000  x0=0x00000000
           4216	      2104	001000b4	03078793	addi	x15,x15,48	 x15:0x00000000 x15=0x00000030
           4220	      2106	001000b8	c29c	c.sw	x15,0(x13)	 x13:0x00020000 x15:0x00000030 PA:0x00020000 store:0x00000030 load:0x00000000
           4222	      2107	001000ba	177d	c.addi	x14,-1	 x14:0x00000004 x14=0x00000003
           4224	      2108	001000bc	0512	c.slli	x10,0x4	 x10:0x00000000 x10=0x00000000
           4228	      2110	001000be	f77d	c.bnez	x14,1000ac	 x14:0x00000003
           4232	      2112	001000ac	01c55793	srli	x15,x10,0x1c	 x10:0x00000000 x15=0x00000000
           4234	      2113	001000b0	00f66963	bltu	x12,x15,1000c2	 x12:0x00000009 x15:0x00000000  x0=0x00000000
           4236	      2114	001000b4	03078793	addi	x15,x15,48	 x15:0x00000000 x15=0x00000030
           4240	      2116	001000b8	c29c	c.sw	x15,0(x13)	 x13:0x00020000 x15:0x00000030 PA:0x00020000 store:0x00000030 load:0x00000000
           4242	      2117	001000ba	177d	c.addi	x14,-1	 x14:0x00000003 x14=0x00000002
           4244	      2118	001000bc	0512	c.slli	x10,0x4	 x10:0x00000000 x10=0x00000000
           4248	      2120	001000be	f77d	c.bnez	x14,1000ac	 x14:0x00000002
           4252	      2122	001000ac	01c55793	srli	x15,x10,0x1c	 x10:0x00000000 x15=0x00000000
           4254	      2123	001000b0	00f66963	bltu	x12,x15,1000c2	 x12:0x00000009 x15:0x00000000  x0=0x00000000
           4256	      2124	001000b4	03078793	addi	x15,x15,48	 x15:0x00000000 x15=0x00000030
           4260	      2126	001000b8	c29c	c.sw	x15,0(x13)	 x13:0x00020000 x15:0x00000030 PA:0x00020000 store:0x00000030 load:0x00000000
           4262	      2127	001000ba	177d	c.addi	x14,-1	 x14:0x00000002 x14=0x00000001
           4264	      2128	001000bc	0512	c.slli	x10,0x4	 x10:0x00000000 x10=0x00000000
           4268	      2130	001000be	f77d	c.bnez	x14,1000ac	 x14:0x00000001
           4272	      2132	001000ac	01c55793	srli	x15,x10,0x1c	 x10:0x00000000 x15=0x00000000
           4274	      2133	001000b0	00f66963	bltu	x12,x15,1000c2	 x12:0x00000009 x15:0x00000000  x0=0x00000000
           4276	      2134	001000b4	03078793	addi	x15,x15,48	 x15:0x00000000 x15=0x00000030
           4280	      2136	001000b8	c29c	c.sw	x15,0(x13)	 x13:0x00020000 x15:0x00000030 PA:0x00020000 store:0x00000030 load:0x00000000
           4282	      2137	001000ba	177d	c.addi	x14,-1	 x14:0x00000001 x14=0x00000000
           4284	      2138	001000bc	0512	c.slli	x10,0x4	 x10:0x00000000 x10=0x00000000
           4286	      2139	001000be	f77d	c.bnez	x14,1000ac	 x14:0x00000000
           4290	      2141	001000c0	8082	c.jr	x1	  x1:0x00100a84
           4292	      2142	00100a84	854a	c.mv	x10,x18	  x0:0x00000000 x18:0x00100ae8 x10=0x00100ae8
           4296	      2144	00100a86	e0aff0ef	jal	x1,100090	  x1=0x00100a8a
           4298	      2145	00100090	00020737	lui	x14,0x20	 x14=0x00020000
           4302	      2147	00100094	00054783	lbu	x15,0(x10)	 x10:0x00100ae8 x15=0x0000000a PA:0x00100ae8 store:0x00000000
           4306	      2149	00100098	e399	c.bnez	x15,10009e	 x15:0x0000000a
           4310	      2151	0010009e	0505	c.addi	x10,1	 x10:0x00100ae8 x10=0x00100ae9
           4314	      2153	001000a0	c31c	c.sw	x15,0(x14)	 x14:0x00020000 x15:0x0000000a PA:0x00020000 store:0x0000000a load:0x00000000
           4318	      2155	001000a2	bfcd	c.j	100094	
           4322	      2157	00100094	00054783	lbu	x15,0(x10)	 x10:0x00100ae9 x15=0x00000000 PA:0x00100ae9 store:0x00000000
           4324	      2158	00100098	e399	c.bnez	x15,10009e	 x15:0x00000000
           4326	      2159	0010009a	4501	c.li	x10,0	 x10=0x00000000
           4330	      2161	0010009c	8082	c.jr	x1	  x1:0x00100a8a
           4336	      2164	00100a8a	fe9410e3	bne	x8,x9,100a6a	  x8:0x00000007  x9:0x00000008  x0=0x00000000
           4340	      2166	00100a6a	0098	c.addi4spn	x14,x2,64	 x14=0x001ffff0
           4342	      2167	00100a6c	00241793	slli	x15,x8,0x2	  x8:0x00000007 x15=0x0000001c
           4344	      2168	00100a70	97ba	c.add	x15,x14	 x15:0x0000001c x14:0x001ffff0 x15=0x0020000c
           4348	      2170	00100a72	fe07a583	lw	x11,-32(x15)	 x15:0x0020000c x11=0x44440000 PA:0x001fffec store:0x00000000
           4352	      2172	00100a76	fc07a503	lw	x10,-64(x15)	 x15:0x0020000c x10=0x33330000 PA:0x001fffcc store:0x00000000
           4354	      2173	00100a7a	4641	c.li	x12,16	 x12=0x00000010
           4356	      2174	00100a7c	0405	c.addi	x8,1	  x8:0x00000007  x8=0x00000008
           4360	      2176	00100a7e	3aa9	c.jal	1003d8	  x1=0x00100a80
           4362	      2177	001003d8	ffe60693	addi	x13,x12,-2	 x12:0x00000010 x13=0x0000000e
           4364	      2178	001003dc	4879	c.li	x16,30	 x16=0x0000001e
           4366	      2179	001003de	87aa	c.mv	x15,x10	  x0:0x00000000 x10:0x33330000 x15=0x33330000
           4368	      2180	001003e0	872e	c.mv	x14,x11	  x0:0x00000000 x11:0x44440000 x14=0x44440000
           4370	      2181	001003e2	02d86263	bltu	x16,x13,100406	 x16:0x0000001e x13:0x0000000e  x0=0x00000000
           4372	      2182	001003e6	cd09	c.beqz	x10,100400	 x10:0x33330000
           4374	      2183	001003e8	cd81	c.beqz	x11,100400	 x11:0x44440000
           4376	      2184	001003ea	800006b7	lui	x13,0x80000	 x13=0x80000000
           4378	      2185	001003ee	00d50c63	beq	x10,x13,100406	 x10:0x33330000 x13:0x80000000  x0=0x00000000
           4380	      2186	001003f2	00d58a63	beq	x11,x13,100406	 x11:0x44440000 x13:0x80000000  x0=0x00000000
           4382	      2187	001003f6	00b547b3	xor	x15,x10,x11	 x10:0x33330000 x11:0x44440000 x15=0x77770000
           4384	      2188	001003fa	0007c963	blt	x15,x0,10040c	 x15:0x77770000  x0:0x00000000  x0=0x00000000
           4388	      2190	001003fe	a801	c.j	10040e	
           4390	      2191	0010040e	832a	c.mv	x6,x10	  x0:0x00000000 x10:0x33330000  x6=0x33330000
           4392	      2192	00100410	12054e63	blt	x10,x0,10054c	 x10:0x33330000  x0:0x00000000  x0=0x00000000
           4394	      2193	00100414	00b55563	bge	x10,x11,10041e	 x10:0x33330000 x11:0x44440000  x0=0x00000000
           4396	      2194	00100418	87aa	c.mv	x15,x10	  x0:0x00000000 x10:0x33330000 x15=0x33330000
           4398	      2195	0010041a	852e	c.mv	x10,x11	  x0:0x00000000 x11:0x44440000 x10=0x44440000
           4400	      2196	0010041c	85be	c.mv	x11,x15	  x0:0x00000000 x15:0x33330000 x11=0x33330000
           4402	      2197	0010041e	4789	c.li	x15,2	 x15=0x00000002
           4404	      2198	00100420	14f60563	beq	x12,x15,10056a	 x12:0x00000010 x15:0x00000002  x0=0x00000000
           4406	      2199	00100424	00151713	slli	x14,x10,0x1	 x10:0x44440000 x14=0x88880000
           4408	      2200	00100428	00251793	slli	x15,x10,0x2	 x10:0x44440000 x15=0x11100000
           4410	      2201	0010042c	12075563	bge	x14,x0,100556	 x14:0x88880000  x0:0x00000000  x0=0x00000000
           4412	      2202	00100430	4801	c.li	x16,0	 x16=0x00000000
           4416	      2204	00100432	0007d663	bge	x15,x0,10043e	 x15:0x11100000  x0:0x00000000  x0=0x00000000
           4422	      2207	0010043e	00179893	slli	x17,x15,0x1	 x15:0x11100000 x17=0x22200000
           4424	      2208	00100442	40000737	lui	x14,0x40000	 x14=0x40000000
           4426	      2209	00100446	00e8e8b3	or	x17,x17,x14	 x17:0x22200000 x14:0x40000000 x17=0x62200000
           4428	      2210	0010044a	01d7d713	srli	x14,x15,0x1d	 x15:0x11100000 x14=0x00000000
           4430	      2211	0010044e	800007b7	lui	x15,0x80000	 x15=0x80000000
           4432	      2212	00100452	fff7c793	xori	x15,x15,-1	 x15:0x80000000 x15=0x7fffffff
           4434	      2213	00100456	00159693	slli	x13,x11,0x1	 x11:0x33330000 x13=0x66660000
           4436	      2214	0010045a	00f8f8b3	and	x17,x17,x15	 x17:0x62200000 x15:0x7fffffff x17=0x62200000
           4438	      2215	0010045e	4f01	c.li	x30,0	 x30=0x00000000
           4440	      2216	00100460	00259793	slli	x15,x11,0x2	 x11:0x33330000 x15=0xcccc0000
           4444	      2218	00100464	1006df63	bge	x13,x0,100582	 x13:0x66660000  x0:0x00000000  x0=0x00000000
           4450	      2221	00100582	00180693	addi	x13,x16,1	 x16:0x00000000 x13=0x00000001
           4454	      2223	00100586	0007c663	blt	x15,x0,100592	 x15:0xcccc0000  x0:0x00000000  x0=0x00000000
           4458	      2225	00100592	0786	c.slli	x15,0x1	 x15:0xcccc0000 x15=0x99980000
           4460	      2226	00100594	8385	c.srli	x15,0x1	 x15:0x99980000 x15=0x4ccc0000
           4464	      2228	00100596	b5c5	c.j	100476	
           4466	      2229	00100476	068a	c.slli	x13,0x2	 x13:0x00000001 x13=0x00000004
           4468	      2230	00100478	01d7d513	srli	x10,x15,0x1d	 x15:0x4ccc0000 x10=0x00000002
           4470	      2231	0010047c	96ba	c.add	x13,x14	 x13:0x00000004 x14:0x00000000 x13=0x00000004
           4472	      2232	0010047e	8e89	c.sub	x13,x10	 x13:0x00000004 x10:0x00000002 x13=0x00000002
           4474	      2233	00100480	03f00513	addi	x10,x0,63	  x0:0x00000000 x10=0x0000003f
           4476	      2234	00100484	04d54463	blt	x10,x13,1004cc	 x10:0x0000003f x13:0x00000002  x0=0x00000000
           4478	      2235	00100488	400005b7	lui	x11,0x40000	 x11=0x40000000
           4480	      2236	0010048c	0786	c.slli	x15,0x1	 x15:0x4ccc0000 x15=0x99980000
           4482	      2237	0010048e	80000537	lui	x10,0x80000	 x10=0x80000000
           4484	      2238	00100492	8fcd	c.or	x15,x11	 x15:0x99980000 x11:0x40000000 x15=0xd9980000
           4486	      2239	00100494	fff54513	xori	x10,x10,-1	 x10:0x80000000 x10=0x7fffffff
           4488	      2240	00100498	fe068593	addi	x11,x13,-32	 x13:0x00000002 x11=0xffffffe2
           4490	      2241	0010049c	8fe9	c.and	x15,x10	 x15:0xd9980000 x10:0x7fffffff x15=0x59980000
           4494	      2243	0010049e	1205ce63	blt	x11,x0,1005da	 x11:0xffffffe2  x0:0x00000000  x0=0x00000000
           4498	      2245	001005da	457d	c.li	x10,31	 x10=0x0000001f
           4500	      2246	001005dc	00179593	slli	x11,x15,0x1	 x15:0x59980000 x11=0xb3300000
           4502	      2247	001005e0	8d15	c.sub	x10,x13	 x10:0x0000001f x13:0x00000002 x10=0x0000001d
           4504	      2248	001005e2	00a595b3	sll	x11,x11,x10	 x11:0xb3300000 x10:0x0000001d x11=0x00000000
           4506	      2249	001005e6	00d7d7b3	srl	x15,x15,x13	 x15:0x59980000 x13:0x00000002 x15=0x16660000
           4510	      2251	001005ea	bd7d	c.j	1004a8	
           4512	      2252	001004a8	97c6	c.add	x15,x17	 x15:0x16660000 x17:0x62200000 x15=0x78860000
           4514	      2253	001004aa	88be	c.mv	x17,x15	  x0:0x00000000 x15:0x78860000 x17=0x78860000
           4516	      2254	001004ac	8f2e	c.mv	x30,x11	  x0:0x00000000 x11:0x00000000 x30=0x00000000
           4520	      2256	001004ae	0007df63	bge	x15,x0,1004cc	 x15:0x78860000  x0:0x00000000  x0=0x00000000
           4524	      2258	001004cc	fff60e13	addi	x28,x12,-1	 x12:0x00000010 x28=0x0000000f
           4526	      2259	001004d0	0c084463	blt	x16,x0,100598	 x16:0x00000000  x0:0x00000000  x0=0x00000000
           4528	      2260	001004d4	00180e93	addi	x29,x16,1	 x16:0x00000000 x29=0x00000001
           4530	      2261	001004d8	0fced163	bge	x29,x28,1005ba	 x29:0x00000001 x28:0x0000000f  x0=0x00000000
           4532	      2262	001004dc	800006b7	lui	x13,0x80000	 x13=0x80000000
           4534	      2263	001004e0	fff6c513	xori	x10,x13,-1	 x13:0x80000000 x10=0x7fffffff
           4536	      2264	001004e4	41d557b3	sra	x15,x10,x29	 x10:0x7fffffff x29:0x00000001 x15=0x3fffffff
           4538	      2265	001004e8	8d1d	c.sub	x10,x15	 x10:0x7fffffff x15:0x3fffffff x10=0x40000000
           4540	      2266	001004ea	14cedd63	bge	x29,x12,100644	 x29:0x00000001 x12:0x00000010  x0=0x00000000
           4542	      2267	001004ee	088a	c.slli	x17,0x2	 x17:0x78860000 x17=0xe2180000
           4544	      2268	001004f0	fe380593	addi	x11,x16,-29	 x16:0x00000000 x11=0xffffffe3
           4546	      2269	001004f4	0028d893	srli	x17,x17,0x2	 x17:0xe2180000 x17=0x38860000
           4548	      2270	001004f8	00380793	addi	x15,x16,3	 x16:0x00000000 x15=0x00000003
           4552	      2272	001004fc	1c05c063	blt	x11,x0,1006bc	 x11:0xffffffe3  x0:0x00000000  x0=0x00000000
           4556	      2274	001006bc	45fd	c.li	x11,31	 x11=0x0000001f
           4558	      2275	001006be	8d9d	c.sub	x11,x15	 x11:0x0000001f x15:0x00000003 x11=0x0000001c
           4560	      2276	001006c0	00189693	slli	x13,x17,0x1	 x17:0x38860000 x13=0x710c0000
           4562	      2277	001006c4	00b696b3	sll	x13,x13,x11	 x13:0x710c0000 x11:0x0000001c x13=0x00000000
           4564	      2278	001006c8	00ff55b3	srl	x11,x30,x15	 x30:0x00000000 x15:0x00000003 x11=0x00000000
           4566	      2279	001006cc	8dd5	c.or	x11,x13	 x11:0x00000000 x13:0x00000000 x11=0x00000000
           4568	      2280	001006ce	00f8d6b3	srl	x13,x17,x15	 x17:0x38860000 x15:0x00000003 x13=0x0710c000
           4572	      2282	001006d2	bd15	c.j	100506	
           4574	      2283	00100506	47f1	c.li	x15,28	 x15=0x0000001c
           4576	      2284	00100508	41d787b3	sub	x15,x15,x29	 x15:0x0000001c x29:0x00000001 x15=0x0000001b
           4578	      2285	0010050c	ffd60813	addi	x16,x12,-3	 x12:0x00000010 x16=0x0000000d
           4580	      2286	00100510	0d0ede63	bge	x29,x16,1005ec	 x29:0x00000001 x16:0x0000000d  x0=0x00000000
           4582	      2287	00100514	80000837	lui	x16,0x80000	 x16=0x80000000
           4584	      2288	00100518	41c85e33	sra	x28,x16,x28	 x16:0x80000000 x28:0x0000000f x28=0xffff0000
           4586	      2289	0010051c	02000893	addi	x17,x0,32	  x0:0x00000000 x17=0x00000020
           4588	      2290	00100520	00de7e33	and	x28,x28,x13	 x28:0xffff0000 x13:0x0710c000 x28=0x07100000
           4590	      2291	00100524	40c888b3	sub	x17,x17,x12	 x17:0x00000020 x12:0x00000010 x17=0x00000010
           4592	      2292	00100528	00f717b3	sll	x15,x14,x15	 x14:0x00000000 x15:0x0000001b x15=0x00000000
           4594	      2293	0010052c	9572	c.add	x10,x28	 x10:0x40000000 x28:0x07100000 x10=0x47100000
           4596	      2294	0010052e	fe088713	addi	x14,x17,-32	 x17:0x00000010 x14=0xfffffff0
           4598	      2295	00100532	953e	c.add	x10,x15	 x10:0x47100000 x15:0x00000000 x10=0x47100000
           4602	      2297	00100534	14074b63	blt	x14,x0,10068a	 x14:0xfffffff0  x0:0x00000000  x0=0x00000000
           4606	      2299	0010068a	47fd	c.li	x15,31	 x15=0x0000001f
           4608	      2300	0010068c	411787b3	sub	x15,x15,x17	 x15:0x0000001f x17:0x00000010 x15=0x0000000f
           4610	      2301	00100690	40000737	lui	x14,0x40000	 x14=0x40000000
           4612	      2302	00100694	00f75733	srl	x14,x14,x15	 x14:0x40000000 x15:0x0000000f x14=0x00008000
           4614	      2303	00100698	011817b3	sll	x15,x16,x17	 x16:0x80000000 x17:0x00000010 x15=0x00000000
           4618	      2305	0010069c	b54d	c.j	10053e	
           4620	      2306	0010053e	8fed	c.and	x15,x11	 x15:0x00000000 x11:0x00000000 x15=0x00000000
           4622	      2307	00100540	8f75	c.and	x14,x13	 x14:0x00008000 x13:0x0710c000 x14=0x00008000
           4624	      2308	00100542	8fd9	c.or	x15,x14	 x15:0x00000000 x14:0x00008000 x15=0x00008000
           4628	      2310	00100544	e7f1	c.bnez	x15,100610	 x15:0x00008000
           4632	      2312	00100610	fe160893	addi	x17,x12,-31	 x12:0x00000010 x17=0xfffffff1
           4634	      2313	00100614	02000793	addi	x15,x0,32	  x0:0x00000000 x15=0x00000020
           4636	      2314	00100618	40c78833	sub	x16,x15,x12	 x15:0x00000020 x12:0x00000010 x16=0x00000010
           4638	      2315	0010061c	577d	c.li	x14,-1	 x14=0xffffffff
           4640	      2316	0010061e	0605	c.addi	x12,1	 x12:0x00000010 x12=0x00000011
           4644	      2318	00100620	0208c763	blt	x17,x0,10064e	 x17:0xfffffff1  x0:0x00000000  x0=0x00000000
           4648	      2320	0010064e	48fd	c.li	x17,31	 x17=0x0000001f
           4650	      2321	00100650	40c887b3	sub	x15,x17,x12	 x17:0x0000001f x12:0x00000011 x15=0x0000000e
           4652	      2322	00100654	58f9	c.li	x17,-2	 x17=0xfffffffe
           4654	      2323	00100656	00f898b3	sll	x17,x17,x15	 x17:0xfffffffe x15:0x0000000e x17=0xffff8000
           4656	      2324	0010065a	00c757b3	srl	x15,x14,x12	 x14:0xffffffff x12:0x00000011 x15=0x00007fff
           4658	      2325	0010065e	00f8e7b3	or	x15,x17,x15	 x17:0xffff8000 x15:0x00007fff x15=0xffffffff
           4660	      2326	00100662	00c75633	srl	x12,x14,x12	 x14:0xffffffff x12:0x00000011 x12=0x00007fff
           4664	      2328	00100666	b7d1	c.j	10062a	
           4666	      2329	0010062a	8fed	c.and	x15,x11	 x15:0xffffffff x11:0x00000000 x15=0x00000000
           4668	      2330	0010062c	8ef1	c.and	x13,x12	 x13:0x0710c000 x12:0x00007fff x13=0x00004000
           4670	      2331	0010062e	01055733	srl	x14,x10,x16	 x10:0x47100000 x16:0x00000010 x14=0x00004710
           4672	      2332	00100632	8fd5	c.or	x15,x13	 x15:0x00000000 x13:0x00004000 x15=0x00004000
           4674	      2333	00100634	00f037b3	sltu	x15,x0,x15	  x0:0x00000000 x15:0x00004000 x15=0x00000001
           4676	      2334	00100638	8b05	c.andi	x14,1	 x14:0x00004710 x14=0x00000000
           4678	      2335	0010063a	8fd9	c.or	x15,x14	 x15:0x00000001 x14:0x00000000 x15=0x00000001
           4680	      2336	0010063c	010797b3	sll	x15,x15,x16	 x15:0x00000001 x16:0x00000010 x15=0x00010000
           4682	      2337	00100640	953e	c.add	x10,x15	 x10:0x47100000 x15:0x00010000 x10=0x47110000
           4686	      2339	00100642	b711	c.j	100546	
           4690	      2341	00100546	02034b63	blt	x6,x0,10057c	  x6:0x33330000  x0:0x00000000  x0=0x00000000
           4694	      2343	0010054a	8082	c.jr	x1	  x1:0x00100a80
           4698	      2345	00100a80	e24ff0ef	jal	x1,1000a4	  x1=0x00100a84
           4700	      2346	001000a4	4721	c.li	x14,8	 x14=0x00000008
           4702	      2347	001000a6	4625	c.li	x12,9	 x12=0x00000009
           4704	      2348	001000a8	000206b7	lui	x13,0x20	 x13=0x00020000
           4706	      2349	001000ac	01c55793	srli	x15,x10,0x1c	 x10:0x47110000 x15=0x00000004
           4708	      2350	001000b0	00f66963	bltu	x12,x15,1000c2	 x12:0x00000009 x15:0x00000004  x0=0x00000000
           4710	      2351	001000b4	03078793	addi	x15,x15,48	 x15:0x00000004 x15=0x00000034
           4714	      2353	001000b8	c29c	c.sw	x15,0(x13)	 x13:0x00020000 x15:0x00000034 PA:0x00020000 store:0x00000034 load:0x00000000
           4716	      2354	001000ba	177d	c.addi	x14,-1	 x14:0x00000008 x14=0x00000007
           4718	      2355	001000bc	0512	c.slli	x10,0x4	 x10:0x47110000 x10=0x71100000
           4722	      2357	001000be	f77d	c.bnez	x14,1000ac	 x14:0x00000007
           4726	      2359	001000ac	01c55793	srli	x15,x10,0x1c	 x10:0x71100000 x15=0x00000007
           4728	      2360	001000b0	00f66963	bltu	x12,x15,1000c2	 x12:0x00000009 x15:0x00000007  x0=0x00000000
           4730	      2361	001000b4	03078793	addi	x15,x15,48	 x15:0x00000007 x15=0x00000037
           4734	      2363	001000b8	c29c	c.sw	x15,0(x13)	 x13:0x00020000 x15:0x00000037 PA:0x00020000 store:0x00000037 load:0x00000000
           4736	      2364	001000ba	177d	c.addi	x14,-1	 x14:0x00000007 x14=0x00000006
           4738	      2365	001000bc	0512	c.slli	x10,0x4	 x10:0x71100000 x10=0x11000000
           4742	      2367	001000be	f77d	c.bnez	x14,1000ac	 x14:0x00000006
           4746	      2369	001000ac	01c55793	srli	x15,x10,0x1c	 x10:0x11000000 x15=0x00000001
           4748	      2370	001000b0	00f66963	bltu	x12,x15,1000c2	 x12:0x00000009 x15:0x00000001  x0=0x00000000
           4750	      2371	001000b4	03078793	addi	x15,x15,48	 x15:0x00000001 x15=0x00000031
           4754	      2373	001000b8	c29c	c.sw	x15,0(x13)	 x13:0x00020000 x15:0x00000031 PA:0x00020000 store:0x00000031 load:0x00000000
           4756	      2374	001000ba	177d	c.addi	x14,-1	 x14:0x00000006 x14=0x00000005
           4758	      2375	001000bc	0512	c.slli	x10,0x4	 x10:0x11000000 x10=0x10000000
           4762	      2377	001000be	f77d	c.bnez	x14,1000ac	 x14:0x00000005
           4766	      2379	001000ac	01c55793	srli	x15,x10,0x1c	 x10:0x10000000 x15=0x00000001
           4768	      2380	001000b0	00f66963	bltu	x12,x15,1000c2	 x12:0x00000009 x15:0x00000001  x0=0x00000000
           4770	      2381	001000b4	03078793	addi	x15,x15,48	 x15:0x00000001 x15=0x00000031
           4774	      2383	001000b8	c29c	c.sw	x15,0(x13)	 x13:0x00020000 x15:0x00000031 PA:0x00020000 store:0x00000031 load:0x00000000
           4776	      2384	001000ba	177d	c.addi	x14,-1	 x14:0x00000005 x14=0x00000004
           4778	      2385	001000bc	0512	c.slli	x10,0x4	 x10:0x10000000 x10=0x00000000
           4782	      2387	001000be	f77d	c.bnez	x14,1000ac	 x14:0x00000004
           4786	      2389	001000ac	01c55793	srli	x15,x10,0x1c	 x10:0x00000000 x15=0x00000000
           4788	      2390	001000b0	00f66963	bltu	x12,x15,1000c2	 x12:0x00000009 x15:0x00000000  x0=0x00000000
           4790	      2391	001000b4	03078793	addi	x15,x15,48	 x15:0x00000000 x15=0x00000030
           4794	      2393	001000b8	c29c	c.sw	x15,0(x13)	 x13:0x00020000 x15:0x00000030 PA:0x00020000 store:0x00000030 load:0x00000000
           4796	      2394	001000ba	177d	c.addi	x14,-1	 x14:0x00000004 x14=0x00000003
           4798	      2395	001000bc	0512	c.slli	x10,0x4	 x10:0x00000000 x10=0x00000000
           4802	      2397	001000be	f77d	c.bnez	x14,1000ac	 x14:0x00000003
           4806	      2399	001000ac	01c55793	srli	x15,x10,0x1c	 x10:0x00000000 x15=0x00000000
           4808	      2400	001000b0	00f66963	bltu	x12,x15,1000c2	 x12:0x00000009 x15:0x00000000  x0=0x00000000
           4810	      2401	001000b4	03078793	addi	x15,x15,48	 x15:0x00000000 x15=0x00000030
           4814	      2403	001000b8	c29c	c.sw	x15,0(x13)	 x13:0x00020000 x15:0x00000030 PA:0x00020000 store:0x00000030 load:0x00000000
           4816	      2404	001000ba	177d	c.addi	x14,-1	 x14:0x00000003 x14=0x00000002
           4818	      2405	001000bc	0512	c.slli	x10,0x4	 x10:0x00000000 x10=0x00000000
           4822	      2407	001000be	f77d	c.bnez	x14,1000ac	 x14:0x00000002
           4826	      2409	001000ac	01c55793	srli	x15,x10,0x1c	 x10:0x00000000 x15=0x00000000
           4828	      2410	001000b0	00f66963	bltu	x12,x15,1000c2	 x12:0x00000009 x15:0x00000000  x0=0x00000000
           4830	      2411	001000b4	03078793	addi	x15,x15,48	 x15:0x00000000 x15=0x00000030
           4834	      2413	001000b8	c29c	c.sw	x15,0(x13)	 x13:0x00020000 x15:0x00000030 PA:0x00020000 store:0x00000030 load:0x00000000
           4836	      2414	001000ba	177d	c.addi	x14,-1	 x14:0x00000002 x14=0x00000001
           4838	      2415	001000bc	0512	c.slli	x10,0x4	 x10:0x00000000 x10=0x00000000
           4842	      2417	001000be	f77d	c.bnez	x14,1000ac	 x14:0x00000001
           4846	      2419	001000ac	01c55793	srli	x15,x10,0x1c	 x10:0x00000000 x15=0x00000000
           4848	      2420	001000b0	00f66963	bltu	x12,x15,1000c2	 x12:0x00000009 x15:0x00000000  x0=0x00000000
           4850	      2421	001000b4	03078793	addi	x15,x15,48	 x15:0x00000000 x15=0x00000030
           4854	      2423	001000b8	c29c	c.sw	x15,0(x13)	 x13:0x00020000 x15:0x00000030 PA:0x00020000 store:0x00000030 load:0x00000000
           4856	      2424	001000ba	177d	c.addi	x14,-1	 x14:0x00000001 x14=0x00000000
           4858	      2425	001000bc	0512	c.slli	x10,0x4	 x10:0x00000000 x10=0x00000000
           4860	      2426	001000be	f77d	c.bnez	x14,1000ac	 x14:0x00000000
           4864	      2428	001000c0	8082	c.jr	x1	  x1:0x00100a84
           4866	      2429	00100a84	854a	c.mv	x10,x18	  x0:0x00000000 x18:0x00100ae8 x10=0x00100ae8
           4870	      2431	00100a86	e0aff0ef	jal	x1,100090	  x1=0x00100a8a
           4872	      2432	00100090	00020737	lui	x14,0x20	 x14=0x00020000
           4876	      2434	00100094	00054783	lbu	x15,0(x10)	 x10:0x00100ae8 x15=0x0000000a PA:0x00100ae8 store:0x00000000
           4880	      2436	00100098	e399	c.bnez	x15,10009e	 x15:0x0000000a
           4884	      2438	0010009e	0505	c.addi	x10,1	 x10:0x00100ae8 x10=0x00100ae9
           4888	      2440	001000a0	c31c	c.sw	x15,0(x14)	 x14:0x00020000 x15:0x0000000a PA:0x00020000 store:0x0000000a load:0x00000000
           4892	      2442	001000a2	bfcd	c.j	100094	
           4896	      2444	00100094	00054783	lbu	x15,0(x10)	 x10:0x00100ae9 x15=0x00000000 PA:0x00100ae9 store:0x00000000
           4898	      2445	00100098	e399	c.bnez	x15,10009e	 x15:0x00000000
           4900	      2446	0010009a	4501	c.li	x10,0	 x10=0x00000000
           4904	      2448	0010009c	8082	c.jr	x1	  x1:0x00100a8a
           4908	      2450	00100a8a	fe9410e3	bne	x8,x9,100a6a	  x8:0x00000008  x9:0x00000008  x0=0x00000000
           4912	      2452	00100a8e	40b6	c.lwsp	x1,76(x2)	  x2:0x001fffb0  x1=0x001003c6 PA:0x001ffffc store:0x00000009
           4916	      2454	00100a90	4426	c.lwsp	x8,72(x2)	  x2:0x001fffb0  x8=0x00000000 PA:0x001ffff8 store:0x00000008
           4920	      2456	00100a92	4496	c.lwsp	x9,68(x2)	  x2:0x001fffb0  x9=0x00000000 PA:0x001ffff4 store:0x00000000
           4924	      2458	00100a94	4906	c.lwsp	x18,64(x2)	  x2:0x001fffb0 x18=0x00000000 PA:0x001ffff0 store:0x00000000
           4926	      2459	00100a96	4501	c.li	x10,0	 x10=0x00000000
           4928	      2460	00100a98	6161	c.addi16sp	x2,80	  x2:0x001fffb0  x2=0x00200000
           4932	      2462	00100a9a	8082	c.jr	x1	  x1:0x001003c6
           4936	      2464	001003c6	000202b7	lui	x5,0x20	  x5=0x00020000
           4938	      2465	001003ca	02a1	c.addi	x5,8	  x5:0x00020000  x5=0x00020008
           4940	      2466	001003cc	4305	c.li	x6,1	  x6=0x00000001
           4944	      2468	001003ce	0062a023	sw	x6,0(x5)	  x5:0x00020008  x6:0x00000001 PA:0x00020008 store:0x00000001 load:0x00000000
